CCS PCH C Compiler, Version 5.015, 5967               17-jun.-21 22:19

               Filename:   C:\Users\USUARIO\Desktop\Programacion\pic\18f452\juego\juego\juego.lst

               ROM used:   5446 bytes (17%)
                           Largest free fragment is 27322
               RAM used:   1065 (69%) at main() level
                           1143 (74%) worst case
               Stack used: 6 locations
               Stack size: 31

*
0000:  GOTO   1094
.................... #define SSD1306_RST    PIN_B2 
.................... #include <18F452.h> 
.................... //////////// Standard Header file for the PIC18F452 device //////////////// 
.................... /////////////////////////////////////////////////////////////////////////// 
.................... ////        (C) Copyright 1996, 2013 Custom Computer Services          //// 
.................... //// This source code may only be used by licensed users of the CCS C  //// 
.................... //// compiler.  This source code may only be distributed to other      //// 
.................... //// licensed users of the CCS C compiler.  No other use, reproduction //// 
.................... //// or distribution is permitted without written permission.          //// 
.................... //// Derivative programs created using this software in object code    //// 
.................... //// form are not restricted in any way.                               //// 
.................... /////////////////////////////////////////////////////////////////////////// 
.................... #device PIC18F452 
0004:  CLRF   FF7
0006:  ADDLW  14
0008:  MOVWF  FF6
000A:  MOVLW  00
000C:  ADDWFC FF7,F
000E:  TBLRD*+
0010:  MOVF   FF5,W
0012:  RETURN 0
0014:  DATA 00,00
0016:  DATA 00,00
0018:  DATA 00,00
001A:  DATA 00,5F
001C:  DATA 00,00
001E:  DATA 00,07
0020:  DATA 00,07
0022:  DATA 00,14
0024:  DATA 7F,14
0026:  DATA 7F,14
0028:  DATA 24,2A
002A:  DATA 7F,2A
002C:  DATA 12,23
002E:  DATA 13,08
0030:  DATA 64,62
0032:  DATA 36,49
0034:  DATA 56,20
0036:  DATA 50,00
0038:  DATA 08,07
003A:  DATA 03,00
003C:  DATA 00,1C
003E:  DATA 22,41
0040:  DATA 00,00
0042:  DATA 41,22
0044:  DATA 1C,00
0046:  DATA 2A,1C
0048:  DATA 7F,1C
004A:  DATA 2A,08
004C:  DATA 08,3E
004E:  DATA 08,08
0050:  DATA 00,80
0052:  DATA 70,30
0054:  DATA 00,08
0056:  DATA 08,08
0058:  DATA 08,08
005A:  DATA 00,00
005C:  DATA 60,60
005E:  DATA 00,20
0060:  DATA 10,08
0062:  DATA 04,02
0064:  DATA 3E,51
0066:  DATA 49,45
0068:  DATA 3E,00
006A:  DATA 42,7F
006C:  DATA 40,00
006E:  DATA 72,49
0070:  DATA 49,49
0072:  DATA 46,21
0074:  DATA 41,49
0076:  DATA 4D,33
0078:  DATA 18,14
007A:  DATA 12,7F
007C:  DATA 10,27
007E:  DATA 45,45
0080:  DATA 45,39
0082:  DATA 3C,4A
0084:  DATA 49,49
0086:  DATA 31,41
0088:  DATA 21,11
008A:  DATA 09,07
008C:  DATA 36,49
008E:  DATA 49,49
0090:  DATA 36,46
0092:  DATA 49,49
0094:  DATA 29,1E
0096:  DATA 00,00
0098:  DATA 14,00
009A:  DATA 00,00
009C:  DATA 40,34
009E:  DATA 00,00
00A0:  DATA 00,08
00A2:  DATA 14,22
00A4:  DATA 41,14
00A6:  DATA 14,14
00A8:  DATA 14,14
00AA:  DATA 00,41
00AC:  DATA 22,14
00AE:  DATA 08,02
00B0:  DATA 01,59
00B2:  DATA 09,06
00B4:  DATA 3E,41
00B6:  DATA 5D,59
00B8:  DATA 4E,7C
00BA:  DATA 12,11
00BC:  DATA 12,7C
00BE:  DATA 7F,49
00C0:  DATA 49,49
00C2:  DATA 36,3E
00C4:  DATA 41,41
00C6:  DATA 41,22
00C8:  DATA 7F,41
00CA:  DATA 41,41
00CC:  DATA 3E,7F
00CE:  DATA 49,49
00D0:  DATA 49,41
00D2:  DATA 7F,09
00D4:  DATA 09,09
00D6:  DATA 01,3E
00D8:  DATA 41,41
00DA:  DATA 51,73
00DC:  DATA 7F,08
00DE:  DATA 08,08
00E0:  DATA 7F,00
00E2:  DATA 41,7F
00E4:  DATA 41,00
00E6:  DATA 20,40
00E8:  DATA 41,3F
00EA:  DATA 01,7F
00EC:  DATA 08,14
00EE:  DATA 22,41
00F0:  DATA 7F,40
00F2:  DATA 40,40
00F4:  DATA 40,7F
00F6:  DATA 02,1C
00F8:  DATA 02,7F
00FA:  DATA 7F,04
00FC:  DATA 08,10
00FE:  DATA 7F,3E
0100:  DATA 41,41
0102:  DATA 41,3E
0104:  DATA 7F,09
0106:  DATA 09,09
0108:  DATA 06,3E
010A:  DATA 41,51
010C:  DATA 21,5E
010E:  DATA 7F,09
0110:  DATA 19,29
0112:  DATA 46,00
0114:  CLRF   FF7
0116:  ADDLW  24
0118:  MOVWF  FF6
011A:  MOVLW  01
011C:  ADDWFC FF7,F
011E:  TBLRD*+
0120:  MOVF   FF5,W
0122:  RETURN 0
0124:  DATA 26,49
0126:  DATA 49,49
0128:  DATA 32,03
012A:  DATA 01,7F
012C:  DATA 01,03
012E:  DATA 3F,40
0130:  DATA 40,40
0132:  DATA 3F,1F
0134:  DATA 20,40
0136:  DATA 20,1F
0138:  DATA 3F,40
013A:  DATA 38,40
013C:  DATA 3F,63
013E:  DATA 14,08
0140:  DATA 14,63
0142:  DATA 03,04
0144:  DATA 78,04
0146:  DATA 03,61
0148:  DATA 59,49
014A:  DATA 4D,43
014C:  DATA 00,7F
014E:  DATA 41,41
0150:  DATA 41,02
0152:  DATA 04,08
0154:  DATA 10,20
0156:  DATA 00,41
0158:  DATA 41,41
015A:  DATA 7F,04
015C:  DATA 02,01
015E:  DATA 02,04
0160:  DATA 40,40
0162:  DATA 40,40
0164:  DATA 40,00
0166:  DATA 03,07
0168:  DATA 08,00
016A:  DATA 20,54
016C:  DATA 54,78
016E:  DATA 40,7F
0170:  DATA 28,44
0172:  DATA 44,38
0174:  DATA 38,44
0176:  DATA 44,44
0178:  DATA 28,38
017A:  DATA 44,44
017C:  DATA 28,7F
017E:  DATA 38,54
0180:  DATA 54,54
0182:  DATA 18,00
0184:  DATA 08,7E
0186:  DATA 09,02
0188:  DATA 18,A4
018A:  DATA A4,9C
018C:  DATA 78,7F
018E:  DATA 08,04
0190:  DATA 04,78
0192:  DATA 00,44
0194:  DATA 7D,40
0196:  DATA 00,20
0198:  DATA 40,40
019A:  DATA 3D,00
019C:  DATA 7F,10
019E:  DATA 28,44
01A0:  DATA 00,00
01A2:  DATA 41,7F
01A4:  DATA 40,00
01A6:  DATA 7C,04
01A8:  DATA 78,04
01AA:  DATA 78,7C
01AC:  DATA 08,04
01AE:  DATA 04,78
01B0:  DATA 38,44
01B2:  DATA 44,44
01B4:  DATA 38,FC
01B6:  DATA 18,24
01B8:  DATA 24,18
01BA:  DATA 18,24
01BC:  DATA 24,18
01BE:  DATA FC,7C
01C0:  DATA 08,04
01C2:  DATA 04,08
01C4:  DATA 48,54
01C6:  DATA 54,54
01C8:  DATA 24,04
01CA:  DATA 04,3F
01CC:  DATA 44,24
01CE:  DATA 3C,40
01D0:  DATA 40,20
01D2:  DATA 7C,1C
01D4:  DATA 20,40
01D6:  DATA 20,1C
01D8:  DATA 3C,40
01DA:  DATA 30,40
01DC:  DATA 3C,44
01DE:  DATA 28,10
01E0:  DATA 28,44
01E2:  DATA 4C,90
01E4:  DATA 90,90
01E6:  DATA 7C,44
01E8:  DATA 64,54
01EA:  DATA 4C,44
01EC:  DATA 00,08
01EE:  DATA 36,41
01F0:  DATA 00,00
01F2:  DATA 00,77
01F4:  DATA 00,00
01F6:  DATA 00,41
01F8:  DATA 36,08
01FA:  DATA 00,02
01FC:  DATA 01,02
01FE:  DATA 04,02
0200:  CLRF   FF7
0202:  ADDLW  10
0204:  MOVWF  FF6
0206:  MOVLW  02
0208:  ADDWFC FF7,F
020A:  TBLRD*+
020C:  MOVF   FF5,W
020E:  RETURN 0
0210:  DATA 67,61
0212:  DATA 6D,65
0214:  DATA 20,6F
0216:  DATA 76,65
0218:  DATA 72,00
021A:  DATA 63,6F
021C:  DATA 6C,75
021E:  DATA 6D,6E
0220:  DATA 61,20
0222:  DATA 3D,20
0224:  DATA 25,75
0226:  DATA 00,00
0228:  DATA 66,69
022A:  DATA 6C,61
022C:  DATA 20,3D
022E:  DATA 20,25
0230:  DATA 75,00
0232:  DATA 70,6F
0234:  DATA 74,3D
0236:  DATA 20,25
0238:  DATA 75,00
*
07DA:  MOVLB  4
07DC:  MOVF   x33,W
07DE:  CLRF   01
07E0:  SUBWF  x32,W
07E2:  BC    07EA
07E4:  MOVFF  432,00
07E8:  BRA    0802
07EA:  CLRF   00
07EC:  MOVLW  08
07EE:  MOVWF  x34
07F0:  RLCF   x32,F
07F2:  RLCF   00,F
07F4:  MOVF   x33,W
07F6:  SUBWF  00,W
07F8:  BTFSC  FD8.0
07FA:  MOVWF  00
07FC:  RLCF   01,F
07FE:  DECFSZ x34,F
0800:  BRA    07F0
0802:  MOVLB  0
0804:  RETURN 0
*
0854:  MOVLB  4
0856:  MOVF   x52,W
0858:  XORWF  x54,W
085A:  ANDLW  80
085C:  MOVWF  x56
085E:  BTFSS  x52.7
0860:  BRA    086C
0862:  COMF   x51,F
0864:  COMF   x52,F
0866:  INCF   x51,F
0868:  BTFSC  FD8.2
086A:  INCF   x52,F
086C:  BTFSS  x54.7
086E:  BRA    087A
0870:  COMF   x53,F
0872:  COMF   x54,F
0874:  INCF   x53,F
0876:  BTFSC  FD8.2
0878:  INCF   x54,F
087A:  MOVF   x51,W
087C:  MULWF  x53
087E:  MOVFF  FF3,01
0882:  MOVFF  FF4,00
0886:  MULWF  x54
0888:  MOVF   FF3,W
088A:  ADDWF  00,F
088C:  MOVF   x52,W
088E:  MULWF  x53
0890:  MOVF   FF3,W
0892:  ADDWFC 00,W
0894:  MOVWF  02
0896:  BTFSS  x56.7
0898:  BRA    08A4
089A:  COMF   01,F
089C:  COMF   02,F
089E:  INCF   01,F
08A0:  BTFSC  FD8.2
08A2:  INCF   02,F
08A4:  MOVLB  0
08A6:  RETURN 0
*
0D3A:  ADDWF  FE8,W
0D3C:  CLRF   FF7
0D3E:  RLCF   FF7,F
0D40:  ADDLW  55
0D42:  MOVWF  FF6
0D44:  MOVLW  0D
0D46:  ADDWFC FF7,F
0D48:  TBLRD*-
0D4A:  MOVF   FF5,W
0D4C:  MOVWF  FFA
0D4E:  TBLRD*
0D50:  MOVF   FF5,W
0D52:  MOVWF  FF9
0D54:  DATA 8E,0B
0D56:  DATA C0,0B
0D58:  DATA F2,0B
0D5A:  DATA 24,0C
*
0FCC:  MOVFF  424,FEA
0FD0:  MOVFF  423,FE9
0FD4:  MOVLB  4
0FD6:  MOVFF  432,FEF
0FDA:  INCF   FE9,F
0FDC:  BTFSC  FD8.2
0FDE:  INCF   FEA,F
0FE0:  CLRF   FEF
0FE2:  INCF   x23,F
0FE4:  BTFSC  FD8.2
0FE6:  INCF   x24,F
0FE8:  MOVLB  0
0FEA:  RETURN 0
0FEC:  TBLRD*+
0FEE:  MOVFF  FF6,430
0FF2:  MOVFF  FF7,431
0FF6:  MOVFF  FF5,432
0FFA:  RCALL  0FCC
0FFC:  MOVFF  430,FF6
1000:  MOVFF  431,FF7
1004:  MOVLB  4
1006:  DECFSZ x2F,F
1008:  BRA    100C
100A:  BRA    1010
100C:  MOVLB  0
100E:  BRA    0FEC
1010:  MOVLB  0
1012:  RETURN 0
1014:  MOVF   01,W
1016:  MOVFF  42F,432
101A:  MOVLW  64
101C:  MOVLB  4
101E:  MOVWF  x33
1020:  MOVLB  0
1022:  CALL   07DA
1026:  MOVFF  00,42F
102A:  MOVF   01,W
102C:  MOVLW  30
102E:  BNZ   1040
1030:  MOVLB  4
1032:  BTFSS  x30.1
1034:  BRA    1054
1036:  BTFSC  x30.3
1038:  BRA    1054
103A:  BTFSC  x30.4
103C:  MOVLW  20
103E:  BRA    1048
1040:  MOVLB  4
1042:  BCF    x30.3
1044:  BCF    x30.4
1046:  BSF    x30.0
1048:  ADDWF  01,F
104A:  MOVFF  01,432
104E:  MOVLB  0
1050:  RCALL  0FCC
1052:  MOVLB  4
1054:  MOVFF  42F,432
1058:  MOVLW  0A
105A:  MOVWF  x33
105C:  MOVLB  0
105E:  CALL   07DA
1062:  MOVFF  00,42F
1066:  MOVF   01,W
1068:  MOVLW  30
106A:  BNZ   107C
106C:  MOVLB  4
106E:  BTFSC  x30.3
1070:  BRA    1086
1072:  BTFSS  x30.0
1074:  BRA    1086
1076:  BTFSC  x30.4
1078:  MOVLW  20
107A:  MOVLB  0
107C:  ADDWF  01,F
107E:  MOVFF  01,432
1082:  RCALL  0FCC
1084:  MOVLB  4
1086:  MOVLW  30
1088:  ADDWF  x2F,F
108A:  MOVFF  42F,432
108E:  MOVLB  0
1090:  RCALL  0FCC
1092:  RETURN 0
....................  
.................... #list 
....................  
.................... #device PASS_STRINGS = IN_RAM 
.................... #fuses HS,  ,  NOLVP 
.................... #use delay(clock = 20MHz) 
*
023A:  MOVLW  04
023C:  MOVWF  FEA
023E:  MOVLW  32
0240:  MOVWF  FE9
0242:  MOVF   FEF,W
0244:  BZ    0260
0246:  MOVLW  06
0248:  MOVWF  01
024A:  CLRF   00
024C:  DECFSZ 00,F
024E:  BRA    024C
0250:  DECFSZ 01,F
0252:  BRA    024A
0254:  MOVLW  7B
0256:  MOVWF  00
0258:  DECFSZ 00,F
025A:  BRA    0258
025C:  DECFSZ FEF,F
025E:  BRA    0246
0260:  RETURN 0
.................... #use fast_io(B) 
.................... #use I2C(MASTER, I2C1, FAST = 400000, stream = SSD1306_STREAM)  // Initialize I2C 
0262:  BCF    FC6.7
0264:  BCF    F9E.3
0266:  MOVFF  437,FC9
026A:  MOVLW  02
026C:  BTFSC  FC6.7
026E:  BRA    027A
0270:  BTFSS  F9E.3
0272:  BRA    0270
0274:  MOVLW  00
0276:  BTFSC  FC5.6
0278:  MOVLW  01
027A:  MOVWF  01
027C:  RETURN 0
....................  
.................... // Include SSD1306 OLED driver source code 
.................... #define SSD1306_I2C_ADDRESS 0x78 
.................... #include <SSD1306_OLED.c>  
.................... #include <stdint.h> 
.................... /////////////////////////////////////////////////////////////////////////// 
.................... ////                                                                   //// 
.................... ////                           stdint.h                                //// 
.................... ////                                                                   //// 
.................... //// Standard integer definitions.                                     //// 
.................... ////                                                                   //// 
.................... /////////////////////////////////////////////////////////////////////////// 
.................... ////        (C) Copyright 1996,2008 Custom Computer Services           //// 
.................... //// This source code may only be used by licensed users of the CCS C  //// 
.................... //// compiler.  This source code may only be distributed to other      //// 
.................... //// licensed users of the CCS C compiler.  No other use, reproduction //// 
.................... //// or distribution is permitted without written permission.          //// 
.................... //// Derivative programs created using this software in object code    //// 
.................... //// form are not restricted in any way.                               //// 
.................... /////////////////////////////////////////////////////////////////////////// 
....................  
.................... #ifndef _STDINT 
....................  
.................... #define _STDINT 
....................  
.................... //////////// exact width 
....................  
.................... typedef signed int8 int8_t; 
.................... typedef unsigned int8 uint8_t; 
.................... typedef signed int16 int16_t; 
.................... typedef unsigned int16 uint16_t; 
.................... typedef signed int32 int32_t; 
.................... typedef unsigned int32 uint32_t; 
....................  
.................... #if defined(__PCD__) 
.................... //typedef signed int24 int24_t; 
.................... //typedef unsigned int24 uint24_t; 
.................... typedef signed int64 int64_t; 
.................... typedef unsigned int64 uint64_t; 
.................... #endif 
....................  
.................... #define INT8_MAX  (128) 
.................... #define INT8_MIN  (-127) 
.................... #define UINT8_MAX (255) 
....................  
.................... #define INT16_MAX  (32767) 
.................... #define INT16_MIN  (-32768) 
.................... #define UINT16_MAX (65535) 
....................  
.................... #define INT32_MAX  (2147483647) 
.................... #define INT32_MIN  (-2147483648) 
.................... #define UINT32_MAX (4294967295) 
....................  
.................... #if defined(__PCD__) 
.................... //#define INT24_MAX  (8388607) 
.................... //#define INT24_MIN  (-8388608) 
.................... //#define UINT24_MAX (16777215) 
....................  
.................... #define INT64_MAX  (9223372036854775807) 
.................... #define INT64_MIN  (-9223372036854775808) 
.................... #define UINT64_MAX (18446744073709551615) 
.................... #endif 
....................  
.................... ///////// minimum width 
....................  
.................... typedef signed int8 int_least8_t; 
.................... typedef unsigned int8 uint_least8_t; 
.................... typedef signed int16 int_least16_t; 
.................... typedef unsigned int16 uint_least16_t; 
.................... typedef signed int32 int_least32_t; 
.................... typedef unsigned int32 uint_least32_t; 
....................  
.................... #if defined(__PCD__) 
.................... //typedef signed int24 int_least24_t; 
.................... //typedef unsigned int24 uint_least24_t; 
.................... typedef signed int64 int_least64_t; 
.................... typedef unsigned int64 uint_least64_t; 
.................... #endif 
....................  
.................... #define INT_LEAST8_MAX  (128) 
.................... #define INT_LEAST8_MIN  (-127) 
.................... #define UINT_LEAST8_MAX (255) 
....................  
.................... #define INT_LEAST16_MAX  (32767) 
.................... #define INT_LEAST16_MIN  (-32768) 
.................... #define UINT_LEAST16_MAX (65535) 
....................  
.................... #define INT_LEAST32_MAX  (2147483647) 
.................... #define INT_LEAST32_MIN  (-2147483648) 
.................... #define UINT_LEAST32_MAX (4294967295) 
....................  
.................... #if defined(__PCD__) 
.................... //#define INT_LEAST24_MAX  (8388607) 
.................... //#define INT_LEAST24_MIN  (-8388608) 
.................... //#define UINT_LEAST24_MAX (16777215) 
....................  
.................... #define INT_LEAST64_MAX  (9223372036854775807) 
.................... #define INT_LEAST64_MIN  (-9223372036854775808) 
.................... #define UINT_LEAST64_MAX (18446744073709551615) 
.................... #endif 
....................  
.................... ///////// fastest width 
....................  
.................... #if defined(__PCD__) 
.................... typedef signed int16 int_fast8_t; 
.................... typedef unsigned int16 uint_fast8_t; 
.................... #define INT_FAST8_MAX  (32767) 
.................... #define INT_FAST8_MIN  (-32768) 
.................... #define UINT_FAST8_MAX (65535) 
.................... typedef signed int16 int_fast16_t; 
.................... typedef unsigned int16 uint_fast16_t; 
.................... //typedef signed int24 int_fast24_t; 
.................... //typedef unsigned int24 uint_fast24_t; 
.................... typedef signed int64 int_fast64_t; 
.................... typedef unsigned int64 uint_fast64_t; 
.................... #else 
.................... typedef signed int8 int_fast8_t; 
.................... typedef unsigned int8 uint_fast8_t; 
.................... #define INT_FAST8_MAX  (128) 
.................... #define INT_FAST8_MIN  (-127) 
.................... #define UINT_FAST8_MAX (255) 
.................... typedef signed int16 int_fast16_t; 
.................... typedef unsigned int16 uint_fast16_t; 
.................... #endif 
....................  
.................... typedef signed int32 int_fast32_t; 
.................... typedef unsigned int32 uint_fast32_t; 
....................  
.................... #define INT_FAST16_MAX  (32767) 
.................... #define INT_FAST16_MIN  (-32768) 
.................... #define UINT_FAST16_MAX (65535) 
....................  
.................... #define INT_FAST32_MAX  (2147483647) 
.................... #define INT_FAST32_MIN  (-2147483648) 
.................... #define UINT_FAST32_MAX (4294967295) 
....................  
.................... #if defined(__PCD__) 
.................... //#define INT_FAST24_MAX  (8388607) 
.................... //#define INT_FAST24_MIN  (-8388608) 
.................... //#define UINT_FAST24_MAX (16777215) 
....................  
.................... #define INT_FAST64_MAX  (9223372036854775807) 
.................... #define INT_FAST64_MIN  (-9223372036854775808) 
.................... #define UINT_FAST64_MAX (18446744073709551615) 
.................... #endif 
....................  
.................... //////////// big enough to hold pointers (OPTIONAL) 
....................  
.................... /// TODO 
....................  
.................... /// intptr_t uintptr_t 
....................  
.................... /// INTPTRN_MIN INTPTRN_MAX UINTPTRN_MAX 
....................  
....................  
.................... /////////// greatest width (OPTIONAL) 
....................  
.................... /// TODO 
....................  
.................... /// intmax_t uintmax_t 
....................  
.................... /// INTMAXN_MIN INTMAXN_MAX UINTMAXN_MAX 
....................  
.................... /// INTMAX_C(value) UINTMAX_C(value) 
....................  
....................  
.................... #endif 
....................  
.................... //------------------------------ Definitions ---------------------------------// 
.................... //#define SSD1306_RST PIN_B2 
....................  
.................... #if !defined SSD1306_128_32 && !defined SSD1306_96_16 
.................... #define SSD1306_128_64 
.................... #endif 
.................... #if defined SSD1306_128_32 && defined SSD1306_96_16 
....................   #error "Only one SSD1306 display can be specified at once" 
.................... #endif 
....................  
.................... #if defined SSD1306_128_64 
....................   #define SSD1306_LCDWIDTH            128 
....................   #define SSD1306_LCDHEIGHT            64 
.................... #endif 
.................... #if defined SSD1306_128_32 
....................   #define SSD1306_LCDWIDTH            128 
....................   #define SSD1306_LCDHEIGHT            32 
.................... #endif 
.................... #if defined SSD1306_96_16 
....................   #define SSD1306_LCDWIDTH             96 
....................   #define SSD1306_LCDHEIGHT            16 
.................... #endif 
....................  
.................... #define SSD1306_SETCONTRAST          0x81 
.................... #define SSD1306_DISPLAYALLON_RESUME  0xA4 
.................... #define SSD1306_DISPLAYALLON         0xA5 
.................... #define SSD1306_NORMALDISPLAY        0xA6 
.................... #define SSD1306_INVERTDISPLAY_       0xA7 
.................... #define SSD1306_DISPLAYOFF           0xAE 
.................... #define SSD1306_DISPLAYON            0xAF 
.................... #define SSD1306_SETDISPLAYOFFSET     0xD3 
.................... #define SSD1306_SETCOMPINS           0xDA 
.................... #define SSD1306_SETVCOMDETECT        0xDB 
.................... #define SSD1306_SETDISPLAYCLOCKDIV   0xD5 
.................... #define SSD1306_SETPRECHARGE         0xD9 
.................... #define SSD1306_SETMULTIPLEX         0xA8 
.................... #define SSD1306_SETLOWCOLUMN         0x00 
.................... #define SSD1306_SETHIGHCOLUMN        0x10 
.................... #define SSD1306_SETSTARTLINE         0x40 
.................... #define SSD1306_MEMORYMODE           0x20 
.................... #define SSD1306_COLUMNADDR           0x21 
.................... #define SSD1306_PAGEADDR             0x22 
.................... #define SSD1306_COMSCANINC           0xC0 
.................... #define SSD1306_COMSCANDEC           0xC8 
.................... #define SSD1306_SEGREMAP             0xA0 
.................... #define SSD1306_CHARGEPUMP           0x8D 
.................... #define SSD1306_EXTERNALVCC          0x01 
.................... #define SSD1306_SWITCHCAPVCC         0x02 
....................  
.................... // Scrolling #defines 
.................... #define SSD1306_ACTIVATE_SCROLL                      0x2F 
.................... #define SSD1306_DEACTIVATE_SCROLL                    0x2E 
.................... #define SSD1306_SET_VERTICAL_SCROLL_AREA             0xA3 
.................... #define SSD1306_RIGHT_HORIZONTAL_SCROLL              0x26 
.................... #define SSD1306_LEFT_HORIZONTAL_SCROLL               0x27 
.................... #define SSD1306_VERTICAL_AND_RIGHT_HORIZONTAL_SCROLL 0x29 
.................... #define SSD1306_VERTICAL_AND_LEFT_HORIZONTAL_SCROLL  0x2A 
....................  
.................... #define ssd1306_swap(a, b) { int16_t t = a; a = b; b = t; } 
....................  
.................... uint8_t _i2caddr, _vccstate, x_pos, y_pos, text_size; 
.................... int1 wrap = TRUE; 
....................  
.................... void ssd1306_command(uint8_t c); 
.................... void SSD1306_Begin(uint8_t vccstate = SSD1306_SWITCHCAPVCC, uint8_t i2caddr = SSD1306_I2C_ADDRESS); 
.................... void SSD1306_DrawPixel(uint8_t x, uint8_t y, int1 color = TRUE); 
.................... void SSD1306_StartScrollRight(uint8_t start, uint8_t stop); 
.................... void SSD1306_StartScrollLeft(uint8_t start, uint8_t stop); 
.................... void SSD1306_StartScrollDiagRight(uint8_t start, uint8_t stop); 
.................... void SSD1306_StartScrollDiagLeft(uint8_t start, uint8_t stop); 
.................... void SSD1306_StopScroll(void); 
.................... void SSD1306_Dim(int1 dim); 
.................... void SSD1306_Display(void); 
.................... void SSD1306_ClearDisplay(void); 
.................... void SSD1306_DrawLine(int16_t x0, int16_t y0, int16_t x1, int16_t y1, int1 color = TRUE); 
.................... void SSD1306_DrawFastHLine(uint8_t x, uint8_t y, uint8_t w, int1 color = TRUE); 
.................... void SSD1306_DrawFastVLine(uint8_t x, uint8_t y, uint8_t h, int1 color = TRUE); 
.................... void SSD1306_FillRect(uint8_t x, uint8_t y, uint8_t w, uint8_t h, int1 color = TRUE); 
.................... void SSD1306_FillScreen(int1 color = TRUE); 
.................... void SSD1306_DrawCircle(int16_t x0, int16_t y0, int16_t r); 
.................... void SSD1306_DrawCircleHelper(int16_t x0, int16_t y0, int16_t r, uint8_t cornername); 
.................... void SSD1306_FillCircle(int16_t x0, int16_t y0, int16_t r, int1 color = TRUE); 
.................... void SSD1306_FillCircleHelper(int16_t x0, int16_t y0, int16_t r, uint8_t cornername, int16_t delta, int1 color = TRUE); 
.................... void SSD1306_DrawRect(uint8_t x, uint8_t y, uint8_t w, uint8_t h); 
.................... void SSD1306_DrawRoundRect(uint8_t x, uint8_t y, uint8_t w, uint8_t h, uint8_t r); 
.................... void SSD1306_FillRoundRect(uint8_t x, uint8_t y, uint8_t w, uint8_t h, uint8_t r, int1 color = TRUE); 
.................... void SSD1306_DrawTriangle(uint8_t x0, uint8_t y0, uint8_t x1, uint8_t y1, uint8_t x2, uint8_t y2); 
.................... void SSD1306_FillTriangle(int16_t x0, int16_t y0, int16_t x1, int16_t y1, int16_t x2, int16_t y2, int1 color = TRUE); 
.................... void SSD1306_DrawChar(uint8_t x, uint8_t y, uint8_t c, uint8_t size = 1); 
.................... void SSD1306_DrawText(uint8_t x, uint8_t y, char *_text, uint8_t size = 1); 
.................... void SSD1306_TextSize(uint8_t t_size); 
.................... void SSD1306_GotoXY(uint8_t x, uint8_t y); 
.................... void SSD1306_Print(uint8_t c); 
.................... void SSD1306_PutCustomC(rom uint8_t *c); 
.................... void SSD1306_SetTextWrap(int1 w); 
.................... void SSD1306_InvertDisplay(int1 i); 
.................... void SSD1306_DrawBMP(uint8_t x, uint8_t y, rom uint8_t *bitmap, uint8_t w, uint8_t h); 
....................  
.................... //--------------------------------------------------------------------------// 
....................  
.................... const char Font[] = { 
.................... 0x00, 0x00, 0x00, 0x00, 0x00, 
.................... 0x00, 0x00, 0x5F, 0x00, 0x00, 
.................... 0x00, 0x07, 0x00, 0x07, 0x00, 
.................... 0x14, 0x7F, 0x14, 0x7F, 0x14, 
.................... 0x24, 0x2A, 0x7F, 0x2A, 0x12, 
.................... 0x23, 0x13, 0x08, 0x64, 0x62, 
.................... 0x36, 0x49, 0x56, 0x20, 0x50, 
.................... 0x00, 0x08, 0x07, 0x03, 0x00, 
.................... 0x00, 0x1C, 0x22, 0x41, 0x00, 
.................... 0x00, 0x41, 0x22, 0x1C, 0x00, 
.................... 0x2A, 0x1C, 0x7F, 0x1C, 0x2A, 
.................... 0x08, 0x08, 0x3E, 0x08, 0x08, 
.................... 0x00, 0x80, 0x70, 0x30, 0x00, 
.................... 0x08, 0x08, 0x08, 0x08, 0x08, 
.................... 0x00, 0x00, 0x60, 0x60, 0x00, 
.................... 0x20, 0x10, 0x08, 0x04, 0x02, 
.................... 0x3E, 0x51, 0x49, 0x45, 0x3E, 
.................... 0x00, 0x42, 0x7F, 0x40, 0x00, 
.................... 0x72, 0x49, 0x49, 0x49, 0x46, 
.................... 0x21, 0x41, 0x49, 0x4D, 0x33, 
.................... 0x18, 0x14, 0x12, 0x7F, 0x10, 
.................... 0x27, 0x45, 0x45, 0x45, 0x39, 
.................... 0x3C, 0x4A, 0x49, 0x49, 0x31, 
.................... 0x41, 0x21, 0x11, 0x09, 0x07, 
.................... 0x36, 0x49, 0x49, 0x49, 0x36, 
.................... 0x46, 0x49, 0x49, 0x29, 0x1E, 
.................... 0x00, 0x00, 0x14, 0x00, 0x00, 
.................... 0x00, 0x40, 0x34, 0x00, 0x00, 
.................... 0x00, 0x08, 0x14, 0x22, 0x41, 
.................... 0x14, 0x14, 0x14, 0x14, 0x14, 
.................... 0x00, 0x41, 0x22, 0x14, 0x08, 
.................... 0x02, 0x01, 0x59, 0x09, 0x06, 
.................... 0x3E, 0x41, 0x5D, 0x59, 0x4E, 
.................... 0x7C, 0x12, 0x11, 0x12, 0x7C, 
.................... 0x7F, 0x49, 0x49, 0x49, 0x36, 
.................... 0x3E, 0x41, 0x41, 0x41, 0x22, 
.................... 0x7F, 0x41, 0x41, 0x41, 0x3E, 
.................... 0x7F, 0x49, 0x49, 0x49, 0x41, 
.................... 0x7F, 0x09, 0x09, 0x09, 0x01, 
.................... 0x3E, 0x41, 0x41, 0x51, 0x73, 
.................... 0x7F, 0x08, 0x08, 0x08, 0x7F, 
.................... 0x00, 0x41, 0x7F, 0x41, 0x00, 
.................... 0x20, 0x40, 0x41, 0x3F, 0x01, 
.................... 0x7F, 0x08, 0x14, 0x22, 0x41, 
.................... 0x7F, 0x40, 0x40, 0x40, 0x40, 
.................... 0x7F, 0x02, 0x1C, 0x02, 0x7F, 
.................... 0x7F, 0x04, 0x08, 0x10, 0x7F, 
.................... 0x3E, 0x41, 0x41, 0x41, 0x3E, 
.................... 0x7F, 0x09, 0x09, 0x09, 0x06, 
.................... 0x3E, 0x41, 0x51, 0x21, 0x5E, 
.................... 0x7F, 0x09, 0x19, 0x29, 0x46 
.................... }; 
.................... const char Font2[] = { 
.................... 0x26, 0x49, 0x49, 0x49, 0x32, 
.................... 0x03, 0x01, 0x7F, 0x01, 0x03, 
.................... 0x3F, 0x40, 0x40, 0x40, 0x3F, 
.................... 0x1F, 0x20, 0x40, 0x20, 0x1F, 
.................... 0x3F, 0x40, 0x38, 0x40, 0x3F, 
.................... 0x63, 0x14, 0x08, 0x14, 0x63, 
.................... 0x03, 0x04, 0x78, 0x04, 0x03, 
.................... 0x61, 0x59, 0x49, 0x4D, 0x43, 
.................... 0x00, 0x7F, 0x41, 0x41, 0x41, 
.................... 0x02, 0x04, 0x08, 0x10, 0x20, 
.................... 0x00, 0x41, 0x41, 0x41, 0x7F, 
.................... 0x04, 0x02, 0x01, 0x02, 0x04, 
.................... 0x40, 0x40, 0x40, 0x40, 0x40, 
.................... 0x00, 0x03, 0x07, 0x08, 0x00, 
.................... 0x20, 0x54, 0x54, 0x78, 0x40, 
.................... 0x7F, 0x28, 0x44, 0x44, 0x38, 
.................... 0x38, 0x44, 0x44, 0x44, 0x28, 
.................... 0x38, 0x44, 0x44, 0x28, 0x7F, 
.................... 0x38, 0x54, 0x54, 0x54, 0x18, 
.................... 0x00, 0x08, 0x7E, 0x09, 0x02, 
.................... 0x18, 0xA4, 0xA4, 0x9C, 0x78, 
.................... 0x7F, 0x08, 0x04, 0x04, 0x78, 
.................... 0x00, 0x44, 0x7D, 0x40, 0x00, 
.................... 0x20, 0x40, 0x40, 0x3D, 0x00, 
.................... 0x7F, 0x10, 0x28, 0x44, 0x00, 
.................... 0x00, 0x41, 0x7F, 0x40, 0x00, 
.................... 0x7C, 0x04, 0x78, 0x04, 0x78, 
.................... 0x7C, 0x08, 0x04, 0x04, 0x78, 
.................... 0x38, 0x44, 0x44, 0x44, 0x38, 
.................... 0xFC, 0x18, 0x24, 0x24, 0x18, 
.................... 0x18, 0x24, 0x24, 0x18, 0xFC, 
.................... 0x7C, 0x08, 0x04, 0x04, 0x08, 
.................... 0x48, 0x54, 0x54, 0x54, 0x24, 
.................... 0x04, 0x04, 0x3F, 0x44, 0x24, 
.................... 0x3C, 0x40, 0x40, 0x20, 0x7C, 
.................... 0x1C, 0x20, 0x40, 0x20, 0x1C, 
.................... 0x3C, 0x40, 0x30, 0x40, 0x3C, 
.................... 0x44, 0x28, 0x10, 0x28, 0x44, 
.................... 0x4C, 0x90, 0x90, 0x90, 0x7C, 
.................... 0x44, 0x64, 0x54, 0x4C, 0x44, 
.................... 0x00, 0x08, 0x36, 0x41, 0x00, 
.................... 0x00, 0x00, 0x77, 0x00, 0x00, 
.................... 0x00, 0x41, 0x36, 0x08, 0x00, 
.................... 0x02, 0x01, 0x02, 0x04, 0x02 
.................... }; 
....................  
.................... static uint8_t ssd1306_buffer[SSD1306_LCDHEIGHT * SSD1306_LCDWIDTH / 8] = { 
.................... 0x00, 0x00, 0x00, 0x00, 0x00, 0x00, 0x00, 0x00, 0x00, 0x00, 0x00, 0x00, 0x00, 0x00, 0x00, 0x00, 
.................... 0x00, 0x00, 0x00, 0x00, 0x00, 0x00, 0x00, 0x00, 0x00, 0x00, 0x00, 0x00, 0x00, 0x00, 0x00, 0x00, 
.................... 0x00, 0x00, 0x00, 0x00, 0x00, 0x00, 0x00, 0x00, 0x00, 0x00, 0x00, 0x00, 0x00, 0x00, 0x00, 0x00, 
.................... 0x00, 0x00, 0x00, 0x00, 0x00, 0x00, 0x00, 0x00, 0x00, 0x00, 0x00, 0x00, 0x00, 0x00, 0x00, 0x80, 
.................... 0x80, 0x80, 0x00, 0x00, 0x00, 0x00, 0x00, 0x00, 0x00, 0x00, 0x00, 0x00, 0x00, 0x00, 0x00, 0x00, 
.................... 0x00, 0x80, 0x80, 0xC0, 0xC0, 0x00, 0x00, 0x00, 0x00, 0x00, 0x00, 0x00, 0x00, 0x00, 0x00, 0x00, 
.................... 0x00, 0x00, 0x00, 0x00, 0x00, 0x00, 0x00, 0x00, 0x00, 0x00, 0x00, 0x00, 0x00, 0x00, 0x00, 0x00, 
.................... 0x00, 0x00, 0x00, 0x00, 0x00, 0x00, 0x00, 0x00, 0x00, 0x00, 0x00, 0x00, 0x00, 0x00, 0x00, 0x00, 
.................... 0x00, 0x00, 0x00, 0x00, 0x00, 0x00, 0x00, 0x00, 0x00, 0x00, 0x00, 0x00, 0x00, 0x00, 0x00, 0x00, 
.................... 0x00, 0x00, 0x00, 0x00, 0x80, 0xC0, 0xE0, 0xF0, 0xF8, 0xFC, 0xF8, 0xE0, 0x00, 0x00, 0x00, 0x00, 
.................... 0x00, 0x00, 0x00, 0x00, 0x00, 0x00, 0x00, 0x00, 0x00, 0x00, 0x00, 0x00, 0x00, 0x80, 0x80, 0x80, 
.................... 0x80, 0x80, 0x00, 0x80, 0x80, 0x00, 0x00, 0x00, 0x00, 0x80, 0x80, 0x80, 0x80, 0x80, 0x00, 0xFF 
.................... #if (SSD1306_LCDHEIGHT * SSD1306_LCDWIDTH > 96*16) 
.................... , 
.................... 0xFF, 0xFF, 0x00, 0x00, 0x00, 0x00, 0x80, 0x80, 0x80, 0x80, 0x00, 0x00, 0x80, 0x80, 0x00, 0x00, 
.................... 0x80, 0xFF, 0xFF, 0x80, 0x80, 0x00, 0x80, 0x80, 0x00, 0x80, 0x80, 0x80, 0x80, 0x00, 0x80, 0x80, 
.................... 0x00, 0x00, 0x00, 0x00, 0x00, 0x80, 0x80, 0x00, 0x00, 0x8C, 0x8E, 0x84, 0x00, 0x00, 0x80, 0xF8, 
.................... 0xF8, 0xF8, 0x80, 0x00, 0x00, 0x00, 0x00, 0x00, 0x00, 0x00, 0x00, 0x00, 0x00, 0x00, 0x00, 0x00, 
.................... 0xF0, 0xF0, 0xF0, 0xF0, 0xF0, 0xF0, 0xF0, 0xF0, 0xF0, 0xF0, 0xF0, 0xF0, 0xE0, 0xE0, 0xC0, 0x80, 
.................... 0x00, 0xE0, 0xFC, 0xFE, 0xFF, 0xFF, 0xFF, 0x7F, 0xFF, 0xFF, 0xFF, 0xFF, 0xFF, 0x00, 0x00, 0x00, 
.................... 0x00, 0x00, 0x00, 0x00, 0x00, 0x00, 0x00, 0x00, 0x00, 0x00, 0x00, 0xFE, 0xFF, 0xC7, 0x01, 0x01, 
.................... 0x01, 0x01, 0x83, 0xFF, 0xFF, 0x00, 0x00, 0x7C, 0xFE, 0xC7, 0x01, 0x01, 0x01, 0x01, 0x83, 0xFF, 
.................... 0xFF, 0xFF, 0x00, 0x38, 0xFE, 0xC7, 0x83, 0x01, 0x01, 0x01, 0x83, 0xC7, 0xFF, 0xFF, 0x00, 0x00, 
.................... 0x01, 0xFF, 0xFF, 0x01, 0x01, 0x00, 0xFF, 0xFF, 0x07, 0x01, 0x01, 0x01, 0x00, 0x00, 0x7F, 0xFF, 
.................... 0x80, 0x00, 0x00, 0x00, 0xFF, 0xFF, 0x7F, 0x00, 0x00, 0xFF, 0xFF, 0xFF, 0x00, 0x00, 0x01, 0xFF, 
.................... 0xFF, 0xFF, 0x01, 0x00, 0x00, 0x00, 0x00, 0x00, 0x00, 0x00, 0x00, 0x00, 0x00, 0x00, 0x00, 0x00, 
.................... 0x03, 0x0F, 0x3F, 0x7F, 0x7F, 0xFF, 0xFF, 0xFF, 0xFF, 0xFF, 0xFF, 0xFF, 0xE7, 0xC7, 0xC7, 0x8F, 
.................... 0x8F, 0x9F, 0xBF, 0xFF, 0xFF, 0xC3, 0xC0, 0xF0, 0xFF, 0xFF, 0xFF, 0xFF, 0xFF, 0xFC, 0xFC, 0xFC, 
.................... 0xFC, 0xFC, 0xFC, 0xFC, 0xFC, 0xF8, 0xF8, 0xF0, 0xF0, 0xE0, 0xC0, 0x00, 0x01, 0x03, 0x03, 0x03, 
.................... 0x03, 0x03, 0x01, 0x03, 0x03, 0x00, 0x00, 0x00, 0x00, 0x01, 0x03, 0x03, 0x03, 0x03, 0x01, 0x01, 
.................... 0x03, 0x01, 0x00, 0x00, 0x00, 0x01, 0x03, 0x03, 0x03, 0x03, 0x01, 0x01, 0x03, 0x03, 0x00, 0x00, 
.................... 0x00, 0x03, 0x03, 0x00, 0x00, 0x00, 0x03, 0x03, 0x00, 0x00, 0x00, 0x00, 0x00, 0x00, 0x00, 0x01, 
.................... 0x03, 0x03, 0x03, 0x03, 0x03, 0x01, 0x00, 0x00, 0x00, 0x01, 0x03, 0x01, 0x00, 0x00, 0x00, 0x03, 
.................... 0x03, 0x01, 0x00, 0x00, 0x00, 0x00, 0x00, 0x00, 0x00, 0x00, 0x00, 0x00, 0x00, 0x00, 0x00, 0x00 
.................... #if (SSD1306_LCDHEIGHT == 64) 
.................... , 
.................... 0x00, 0x00, 0x00, 0x80, 0xC0, 0xE0, 0xF0, 0xF9, 0xFF, 0xFF, 0xFF, 0xFF, 0xFF, 0x3F, 0x1F, 0x0F, 
.................... 0x87, 0xC7, 0xF7, 0xFF, 0xFF, 0x1F, 0x1F, 0x3D, 0xFC, 0xF8, 0xF8, 0xF8, 0xF8, 0x7C, 0x7D, 0xFF, 
.................... 0xFF, 0xFF, 0xFF, 0xFF, 0xFF, 0xFF, 0xFF, 0x7F, 0x3F, 0x0F, 0x07, 0x00, 0x30, 0x30, 0x00, 0x00, 
.................... 0x00, 0x00, 0x00, 0x00, 0x00, 0x00, 0x00, 0x00, 0x00, 0x00, 0x00, 0x00, 0x00, 0x00, 0x00, 0x00, 
.................... 0x00, 0x00, 0x00, 0x00, 0xFE, 0xFE, 0xFC, 0x00, 0x00, 0x00, 0x00, 0x00, 0x00, 0x00, 0x00, 0x00, 
.................... 0x00, 0x00, 0x00, 0x00, 0x00, 0x00, 0x00, 0x00, 0x00, 0x00, 0x00, 0x00, 0x00, 0xE0, 0xC0, 0x00, 
.................... 0x00, 0x00, 0x00, 0x00, 0x00, 0x00, 0x00, 0x00, 0x00, 0x00, 0x30, 0x30, 0x00, 0x00, 0x00, 0x00, 
.................... 0x00, 0x00, 0x00, 0x00, 0x00, 0x00, 0x00, 0x00, 0x00, 0x00, 0x00, 0x00, 0x00, 0x00, 0x00, 0x00, 
.................... 0x00, 0xC0, 0xFE, 0xFF, 0xFF, 0xFF, 0xFF, 0xFF, 0xFF, 0xFF, 0xFF, 0xFF, 0x7F, 0x7F, 0x3F, 0x1F, 
.................... 0x0F, 0x07, 0x1F, 0x7F, 0xFF, 0xFF, 0xF8, 0xF8, 0xFF, 0xFF, 0xFF, 0xFF, 0xFF, 0xFE, 0xF8, 0xE0, 
.................... 0x00, 0x00, 0x00, 0x01, 0x00, 0x00, 0x00, 0x00, 0x00, 0x00, 0x00, 0x00, 0xFE, 0xFE, 0x00, 0x00, 
.................... 0x00, 0xFC, 0xFE, 0xFC, 0x0C, 0x06, 0x06, 0x0E, 0xFC, 0xF8, 0x00, 0x00, 0xF0, 0xF8, 0x1C, 0x0E, 
.................... 0x06, 0x06, 0x06, 0x0C, 0xFF, 0xFF, 0xFF, 0x00, 0x00, 0xFE, 0xFE, 0x00, 0x00, 0x00, 0x00, 0xFC, 
.................... 0xFE, 0xFC, 0x00, 0x18, 0x3C, 0x7E, 0x66, 0xE6, 0xCE, 0x84, 0x00, 0x00, 0x06, 0xFF, 0xFF, 0x06, 
.................... 0x06, 0xFC, 0xFE, 0xFC, 0x0C, 0x06, 0x06, 0x06, 0x00, 0x00, 0xFE, 0xFE, 0x00, 0x00, 0xC0, 0xF8, 
.................... 0xFC, 0x4E, 0x46, 0x46, 0x46, 0x4E, 0x7C, 0x78, 0x40, 0x18, 0x3C, 0x76, 0xE6, 0xCE, 0xCC, 0x80, 
.................... 0x00, 0x00, 0x00, 0x00, 0x00, 0x00, 0x00, 0x00, 0x00, 0x00, 0x00, 0x00, 0x00, 0x00, 0x00, 0x00, 
.................... 0x00, 0x00, 0x00, 0x00, 0x01, 0x07, 0x0F, 0x1F, 0x1F, 0x3F, 0x3F, 0x3F, 0x3F, 0x1F, 0x0F, 0x03, 
.................... 0x00, 0x00, 0x00, 0x00, 0x00, 0x00, 0x00, 0x00, 0x00, 0x00, 0x00, 0x00, 0x0F, 0x0F, 0x00, 0x00, 
.................... 0x00, 0x0F, 0x0F, 0x0F, 0x00, 0x00, 0x00, 0x00, 0x0F, 0x0F, 0x00, 0x00, 0x03, 0x07, 0x0E, 0x0C, 
.................... 0x18, 0x18, 0x0C, 0x06, 0x0F, 0x0F, 0x0F, 0x00, 0x00, 0x01, 0x0F, 0x0E, 0x0C, 0x18, 0x0C, 0x0F, 
.................... 0x07, 0x01, 0x00, 0x04, 0x0E, 0x0C, 0x18, 0x0C, 0x0F, 0x07, 0x00, 0x00, 0x00, 0x0F, 0x0F, 0x00, 
.................... 0x00, 0x0F, 0x0F, 0x0F, 0x00, 0x00, 0x00, 0x00, 0x00, 0x00, 0x0F, 0x0F, 0x00, 0x00, 0x00, 0x07, 
.................... 0x07, 0x0C, 0x0C, 0x18, 0x1C, 0x0C, 0x06, 0x06, 0x00, 0x04, 0x0E, 0x0C, 0x18, 0x0C, 0x0F, 0x07, 
.................... 0x00, 0x00, 0x00, 0x00, 0x00, 0x00, 0x00, 0x00, 0x00, 0x00, 0x00, 0x00, 0x00, 0x00, 0x00, 0x00, 
.................... 0x00, 0x00, 0x00, 0x00, 0x00, 0x00, 0x00, 0x00, 0x00, 0x00, 0x00, 0x00, 0x00, 0x00, 0x00, 0x00, 
.................... 0x00, 0x00, 0x00, 0x00, 0x00, 0x00, 0x00, 0x00, 0x00, 0x00, 0x00, 0x00, 0x00, 0x00, 0x00, 0x00, 
.................... 0x00, 0x00, 0x00, 0x00, 0x00, 0x00, 0x00, 0x00, 0x00, 0x00, 0x00, 0x00, 0x00, 0x00, 0x00, 0x00, 
.................... 0x00, 0x00, 0x00, 0x00, 0x00, 0x00, 0x00, 0x00, 0x00, 0x00, 0x00, 0x00, 0x00, 0x00, 0x00, 0x00, 
.................... 0x00, 0x00, 0x00, 0x00, 0x00, 0x00, 0x00, 0x00, 0x00, 0x00, 0x00, 0x00, 0x00, 0x00, 0x00, 0x00, 
.................... 0x00, 0x00, 0x00, 0x00, 0x00, 0x00, 0x00, 0x00, 0x00, 0x00, 0x00, 0x00, 0x00, 0x00, 0x00, 0x00, 
.................... 0x00, 0x00, 0x00, 0x00, 0x00, 0x00, 0x00, 0x00, 0x00, 0x00, 0x00, 0x00, 0x00, 0x00, 0x00, 0x00 
.................... #endif 
.................... #endif 
.................... }; 
....................  
.................... void ssd1306_command(uint8_t c) 
027E:  MOVLB  4
0280:  CLRF   x36
.................... { 
....................     uint8_t control = 0x00;   // Co = 0, D/C = 0 
....................     I2C_Start(SSD1306_STREAM); 
0282:  BSF    FC5.0
0284:  BTFSC  FC5.0
0286:  BRA    0284
....................     I2C_Write(SSD1306_STREAM, _i2caddr); 
0288:  MOVFF  04,437
028C:  MOVLB  0
028E:  RCALL  0262
....................     I2C_Write(SSD1306_STREAM, control); 
0290:  MOVFF  436,437
0294:  RCALL  0262
....................     I2C_Write(SSD1306_STREAM, c); 
0296:  MOVFF  435,437
029A:  RCALL  0262
....................     I2C_Stop(SSD1306_STREAM); 
029C:  BSF    FC5.2
029E:  BTFSC  FC5.2
02A0:  BRA    029E
02A2:  RETURN 0
.................... } 
....................  
.................... void SSD1306_Begin(uint8_t vccstate = SSD1306_SWITCHCAPVCC, uint8_t i2caddr = SSD1306_I2C_ADDRESS) 
.................... { 
....................   _vccstate = vccstate; 
02A4:  MOVFF  42F,05
....................   _i2caddr  = i2caddr; 
02A8:  MOVFF  430,04
....................   delay_ms(10); 
02AC:  MOVLW  0A
02AE:  MOVLB  4
02B0:  MOVWF  x32
02B2:  MOVLB  0
02B4:  RCALL  023A
....................  
....................   #ifdef SSD1306_RST 
....................     output_low(SSD1306_RST); 
02B6:  BCF    F8A.2
....................     output_drive(SSD1306_RST); 
02B8:  BCF    F93.2
....................     delay_ms(10); 
02BA:  MOVLW  0A
02BC:  MOVLB  4
02BE:  MOVWF  x32
02C0:  MOVLB  0
02C2:  RCALL  023A
....................     output_high(SSD1306_RST); 
02C4:  BSF    F8A.2
....................   #endif 
....................    
....................   // Init sequence 
....................   ssd1306_command(SSD1306_DISPLAYOFF);                    // 0xAE 
02C6:  MOVLW  AE
02C8:  MOVLB  4
02CA:  MOVWF  x35
02CC:  MOVLB  0
02CE:  RCALL  027E
....................   ssd1306_command(SSD1306_SETDISPLAYCLOCKDIV);            // 0xD5 
02D0:  MOVLW  D5
02D2:  MOVLB  4
02D4:  MOVWF  x35
02D6:  MOVLB  0
02D8:  RCALL  027E
....................   ssd1306_command(0x80);                                  // the suggested ratio 0x80 
02DA:  MOVLW  80
02DC:  MOVLB  4
02DE:  MOVWF  x35
02E0:  MOVLB  0
02E2:  RCALL  027E
....................  
....................   ssd1306_command(SSD1306_SETMULTIPLEX);                  // 0xA8 
02E4:  MOVLW  A8
02E6:  MOVLB  4
02E8:  MOVWF  x35
02EA:  MOVLB  0
02EC:  RCALL  027E
....................   ssd1306_command(SSD1306_LCDHEIGHT - 1); 
02EE:  MOVLW  3F
02F0:  MOVLB  4
02F2:  MOVWF  x35
02F4:  MOVLB  0
02F6:  RCALL  027E
....................  
....................   ssd1306_command(SSD1306_SETDISPLAYOFFSET);              // 0xD3 
02F8:  MOVLW  D3
02FA:  MOVLB  4
02FC:  MOVWF  x35
02FE:  MOVLB  0
0300:  RCALL  027E
....................   ssd1306_command(0x0);                                   // no offset 
0302:  MOVLB  4
0304:  CLRF   x35
0306:  MOVLB  0
0308:  RCALL  027E
....................   ssd1306_command(SSD1306_SETSTARTLINE | 0x0);            // line #0 
030A:  MOVLW  40
030C:  MOVLB  4
030E:  MOVWF  x35
0310:  MOVLB  0
0312:  RCALL  027E
....................   ssd1306_command(SSD1306_CHARGEPUMP);                    // 0x8D 
0314:  MOVLW  8D
0316:  MOVLB  4
0318:  MOVWF  x35
031A:  MOVLB  0
031C:  RCALL  027E
....................   if (vccstate == SSD1306_EXTERNALVCC) 
031E:  MOVLB  4
0320:  DECFSZ x2F,W
0322:  BRA    0330
....................     { ssd1306_command(0x10); } 
0324:  MOVLW  10
0326:  MOVWF  x35
0328:  MOVLB  0
032A:  RCALL  027E
032C:  BRA    0338
032E:  MOVLB  4
....................   else 
....................     { ssd1306_command(0x14); } 
0330:  MOVLW  14
0332:  MOVWF  x35
0334:  MOVLB  0
0336:  RCALL  027E
....................   ssd1306_command(SSD1306_MEMORYMODE);                    // 0x20 
0338:  MOVLW  20
033A:  MOVLB  4
033C:  MOVWF  x35
033E:  MOVLB  0
0340:  RCALL  027E
....................   ssd1306_command(0x00);                                  // 0x0 act like ks0108 
0342:  MOVLB  4
0344:  CLRF   x35
0346:  MOVLB  0
0348:  RCALL  027E
....................   ssd1306_command(SSD1306_SEGREMAP | 0x1); 
034A:  MOVLW  A1
034C:  MOVLB  4
034E:  MOVWF  x35
0350:  MOVLB  0
0352:  RCALL  027E
....................   ssd1306_command(SSD1306_COMSCANDEC); 
0354:  MOVLW  C8
0356:  MOVLB  4
0358:  MOVWF  x35
035A:  MOVLB  0
035C:  RCALL  027E
....................  
....................  #if defined SSD1306_128_32 
....................   ssd1306_command(SSD1306_SETCOMPINS);                    // 0xDA 
....................   ssd1306_command(0x02); 
....................   ssd1306_command(SSD1306_SETCONTRAST);                   // 0x81 
....................   ssd1306_command(0x8F); 
....................  
.................... #elif defined SSD1306_128_64 
....................   ssd1306_command(SSD1306_SETCOMPINS);                    // 0xDA 
035E:  MOVLW  DA
0360:  MOVLB  4
0362:  MOVWF  x35
0364:  MOVLB  0
0366:  RCALL  027E
....................   ssd1306_command(0x12); 
0368:  MOVLW  12
036A:  MOVLB  4
036C:  MOVWF  x35
036E:  MOVLB  0
0370:  RCALL  027E
....................   ssd1306_command(SSD1306_SETCONTRAST);                   // 0x81 
0372:  MOVLW  81
0374:  MOVLB  4
0376:  MOVWF  x35
0378:  MOVLB  0
037A:  RCALL  027E
....................   if (vccstate == SSD1306_EXTERNALVCC) 
037C:  MOVLB  4
037E:  DECFSZ x2F,W
0380:  BRA    038E
....................     { ssd1306_command(0x9F); } 
0382:  MOVLW  9F
0384:  MOVWF  x35
0386:  MOVLB  0
0388:  RCALL  027E
038A:  BRA    0396
038C:  MOVLB  4
....................   else 
....................     { ssd1306_command(0xCF); } 
038E:  MOVLW  CF
0390:  MOVWF  x35
0392:  MOVLB  0
0394:  RCALL  027E
....................  
.................... #elif defined SSD1306_96_16 
....................   ssd1306_command(SSD1306_SETCOMPINS);                    // 0xDA 
....................   ssd1306_command(0x2);   //ada x12 
....................   ssd1306_command(SSD1306_SETCONTRAST);                   // 0x81 
....................   if (vccstate == SSD1306_EXTERNALVCC) 
....................     { ssd1306_command(0x10); } 
....................   else 
....................     { ssd1306_command(0xAF); } 
....................  
.................... #endif 
....................  
....................   ssd1306_command(SSD1306_SETPRECHARGE);                  // 0xd9 
0396:  MOVLW  D9
0398:  MOVLB  4
039A:  MOVWF  x35
039C:  MOVLB  0
039E:  RCALL  027E
....................   if (vccstate == SSD1306_EXTERNALVCC) 
03A0:  MOVLB  4
03A2:  DECFSZ x2F,W
03A4:  BRA    03B2
....................     { ssd1306_command(0x22); } 
03A6:  MOVLW  22
03A8:  MOVWF  x35
03AA:  MOVLB  0
03AC:  RCALL  027E
03AE:  BRA    03BA
03B0:  MOVLB  4
....................   else 
....................     { ssd1306_command(0xF1); } 
03B2:  MOVLW  F1
03B4:  MOVWF  x35
03B6:  MOVLB  0
03B8:  RCALL  027E
....................   ssd1306_command(SSD1306_SETVCOMDETECT);                 // 0xDB 
03BA:  MOVLW  DB
03BC:  MOVLB  4
03BE:  MOVWF  x35
03C0:  MOVLB  0
03C2:  RCALL  027E
....................   ssd1306_command(0x40); 
03C4:  MOVLW  40
03C6:  MOVLB  4
03C8:  MOVWF  x35
03CA:  MOVLB  0
03CC:  RCALL  027E
....................   ssd1306_command(SSD1306_DISPLAYALLON_RESUME);           // 0xA4 
03CE:  MOVLW  A4
03D0:  MOVLB  4
03D2:  MOVWF  x35
03D4:  MOVLB  0
03D6:  RCALL  027E
....................   ssd1306_command(SSD1306_NORMALDISPLAY);                 // 0xA6 
03D8:  MOVLW  A6
03DA:  MOVLB  4
03DC:  MOVWF  x35
03DE:  MOVLB  0
03E0:  RCALL  027E
....................  
....................   ssd1306_command(SSD1306_DEACTIVATE_SCROLL); 
03E2:  MOVLW  2E
03E4:  MOVLB  4
03E6:  MOVWF  x35
03E8:  MOVLB  0
03EA:  RCALL  027E
....................  
....................   ssd1306_command(SSD1306_DISPLAYON);//--turn on oled panel 
03EC:  MOVLW  AF
03EE:  MOVLB  4
03F0:  MOVWF  x35
03F2:  MOVLB  0
03F4:  RCALL  027E
....................    
....................   // set cursor to (0, 0) 
....................   x_pos = 0; 
03F6:  CLRF   06
....................   y_pos = 0; 
03F8:  CLRF   07
....................   // set text size to 1 
....................   text_size = 1; 
03FA:  MOVLW  01
03FC:  MOVWF  08
03FE:  GOTO   1398 (RETURN)
.................... } 
....................  
.................... void SSD1306_DrawPixel(uint8_t x, uint8_t y, int1 color = TRUE) 
.................... { 
....................   if ((x >= SSD1306_LCDWIDTH) || (y >= SSD1306_LCDHEIGHT)) 
*
04CC:  MOVLB  4
04CE:  MOVF   x6F,W
04D0:  SUBLW  7F
04D2:  BNC   04DA
04D4:  MOVF   x70,W
04D6:  SUBLW  3F
04D8:  BC    04DC
....................     return; 
04DA:  BRA    05B8
....................   if (color) 
04DC:  MOVF   x71,F
04DE:  BZ    054C
....................     ssd1306_buffer[x + (uint16_t)(y / 8) * SSD1306_LCDWIDTH] |=  (1 << (y & 7)); 
04E0:  RRCF   x70,W
04E2:  MOVWF  00
04E4:  RRCF   00,F
04E6:  RRCF   00,F
04E8:  MOVLW  1F
04EA:  ANDWF  00,F
04EC:  MOVF   00,W
04EE:  CLRF   x73
04F0:  MOVWF  x72
04F2:  RLCF   x72,W
04F4:  MOVWF  02
04F6:  RLCF   x73,W
04F8:  MOVWF  03
04FA:  RLCF   02,F
04FC:  RLCF   03,F
04FE:  RLCF   02,F
0500:  RLCF   03,F
0502:  RLCF   02,F
0504:  RLCF   03,F
0506:  RLCF   02,F
0508:  RLCF   03,F
050A:  RLCF   02,F
050C:  RLCF   03,F
050E:  RLCF   02,F
0510:  RLCF   03,F
0512:  MOVLW  80
0514:  ANDWF  02,F
0516:  MOVF   02,W
0518:  ADDWF  x6F,W
051A:  MOVWF  x72
051C:  MOVLW  00
051E:  ADDWFC 03,W
0520:  MOVWF  x73
0522:  MOVLW  0A
0524:  ADDWF  x72,W
0526:  MOVWF  FE9
0528:  MOVLW  00
052A:  ADDWFC x73,W
052C:  MOVWF  FEA
052E:  MOVF   x70,W
0530:  ANDLW  07
0532:  MOVWF  01
0534:  MOVLW  01
0536:  MOVWF  00
0538:  MOVF   01,F
053A:  BZ    0544
053C:  BCF    FD8.0
053E:  RLCF   00,F
0540:  DECFSZ 01,F
0542:  BRA    053C
0544:  MOVF   00,W
0546:  IORWF  FEF,W
0548:  MOVWF  FEF
054A:  BRA    05B8
....................   else 
....................     ssd1306_buffer[x + (uint16_t)(y / 8) * SSD1306_LCDWIDTH] &=  ~(1 << (y & 7)); 
054C:  RRCF   x70,W
054E:  MOVWF  00
0550:  RRCF   00,F
0552:  RRCF   00,F
0554:  MOVLW  1F
0556:  ANDWF  00,F
0558:  MOVF   00,W
055A:  CLRF   x73
055C:  MOVWF  x72
055E:  RLCF   x72,W
0560:  MOVWF  02
0562:  RLCF   x73,W
0564:  MOVWF  03
0566:  RLCF   02,F
0568:  RLCF   03,F
056A:  RLCF   02,F
056C:  RLCF   03,F
056E:  RLCF   02,F
0570:  RLCF   03,F
0572:  RLCF   02,F
0574:  RLCF   03,F
0576:  RLCF   02,F
0578:  RLCF   03,F
057A:  RLCF   02,F
057C:  RLCF   03,F
057E:  MOVLW  80
0580:  ANDWF  02,F
0582:  MOVF   02,W
0584:  ADDWF  x6F,W
0586:  MOVWF  x72
0588:  MOVLW  00
058A:  ADDWFC 03,W
058C:  MOVWF  x73
058E:  MOVLW  0A
0590:  ADDWF  x72,W
0592:  MOVWF  FE9
0594:  MOVLW  00
0596:  ADDWFC x73,W
0598:  MOVWF  FEA
059A:  MOVF   x70,W
059C:  ANDLW  07
059E:  MOVWF  01
05A0:  MOVLW  01
05A2:  MOVWF  00
05A4:  MOVF   01,F
05A6:  BZ    05B0
05A8:  BCF    FD8.0
05AA:  RLCF   00,F
05AC:  DECFSZ 01,F
05AE:  BRA    05A8
05B0:  MOVF   00,W
05B2:  XORLW  FF
05B4:  ANDWF  FEF,W
05B6:  MOVWF  FEF
05B8:  MOVLB  0
05BA:  RETURN 0
.................... } 
....................  
.................... void SSD1306_StartScrollRight(uint8_t start, uint8_t stop) 
.................... { 
....................   ssd1306_command(SSD1306_RIGHT_HORIZONTAL_SCROLL); 
....................   ssd1306_command(0X00); 
....................   ssd1306_command(start); 
....................   ssd1306_command(0X00); 
....................   ssd1306_command(stop); 
....................   ssd1306_command(0X00); 
....................   ssd1306_command(0XFF); 
....................   ssd1306_command(SSD1306_ACTIVATE_SCROLL); 
.................... } 
....................  
.................... void SSD1306_StartScrollLeft(uint8_t start, uint8_t stop) 
.................... { 
....................   ssd1306_command(SSD1306_LEFT_HORIZONTAL_SCROLL); 
....................   ssd1306_command(0X00); 
....................   ssd1306_command(start); 
....................   ssd1306_command(0X00); 
....................   ssd1306_command(stop); 
....................   ssd1306_command(0X00); 
....................   ssd1306_command(0XFF); 
....................   ssd1306_command(SSD1306_ACTIVATE_SCROLL); 
.................... } 
....................  
.................... void SSD1306_StartScrollDiagRight(uint8_t start, uint8_t stop) 
.................... { 
....................   ssd1306_command(SSD1306_SET_VERTICAL_SCROLL_AREA); 
....................   ssd1306_command(0X00); 
....................   ssd1306_command(SSD1306_LCDHEIGHT); 
....................   ssd1306_command(SSD1306_VERTICAL_AND_RIGHT_HORIZONTAL_SCROLL); 
....................   ssd1306_command(0X00); 
....................   ssd1306_command(start); 
....................   ssd1306_command(0X00); 
....................   ssd1306_command(stop); 
....................   ssd1306_command(0X01); 
....................   ssd1306_command(SSD1306_ACTIVATE_SCROLL); 
.................... } 
....................  
.................... void SSD1306_StartScrollDiagLeft(uint8_t start, uint8_t stop) 
.................... { 
....................   ssd1306_command(SSD1306_SET_VERTICAL_SCROLL_AREA); 
....................   ssd1306_command(0X00); 
....................   ssd1306_command(SSD1306_LCDHEIGHT); 
....................   ssd1306_command(SSD1306_VERTICAL_AND_LEFT_HORIZONTAL_SCROLL); 
....................   ssd1306_command(0X00); 
....................   ssd1306_command(start); 
....................   ssd1306_command(0X00); 
....................   ssd1306_command(stop); 
....................   ssd1306_command(0X01); 
....................   ssd1306_command(SSD1306_ACTIVATE_SCROLL); 
.................... } 
....................  
.................... void SSD1306_StopScroll(void) 
.................... { 
....................   ssd1306_command(SSD1306_DEACTIVATE_SCROLL); 
.................... } 
....................  
.................... void SSD1306_Dim(int1 dim) 
.................... { 
....................   uint8_t contrast; 
....................   if (dim) 
....................     contrast = 0; // Dimmed display 
....................   else { 
....................     if (_vccstate == SSD1306_EXTERNALVCC) 
....................       contrast = 0x9F; 
....................     else 
....................       contrast = 0xCF; 
....................   } 
....................   // the range of contrast to too small to be really useful 
....................   // it is useful to dim the display 
....................   ssd1306_command(SSD1306_SETCONTRAST); 
....................   ssd1306_command(contrast); 
.................... } 
....................  
.................... void SSD1306_Display(void) 
.................... { 
....................   ssd1306_command(SSD1306_COLUMNADDR); 
*
0428:  MOVLW  21
042A:  MOVLB  4
042C:  MOVWF  x35
042E:  MOVLB  0
0430:  RCALL  027E
....................   ssd1306_command(0);   // Column start address (0 = reset) 
0432:  MOVLB  4
0434:  CLRF   x35
0436:  MOVLB  0
0438:  RCALL  027E
....................   ssd1306_command(SSD1306_LCDWIDTH-1); // Column end address (127 = reset) 
043A:  MOVLW  7F
043C:  MOVLB  4
043E:  MOVWF  x35
0440:  MOVLB  0
0442:  RCALL  027E
....................  
....................   ssd1306_command(SSD1306_PAGEADDR); 
0444:  MOVLW  22
0446:  MOVLB  4
0448:  MOVWF  x35
044A:  MOVLB  0
044C:  RCALL  027E
....................   ssd1306_command(0); // Page start address (0 = reset) 
044E:  MOVLB  4
0450:  CLRF   x35
0452:  MOVLB  0
0454:  RCALL  027E
....................   #if SSD1306_LCDHEIGHT == 64 
....................     ssd1306_command(7); // Page end address 
0456:  MOVLW  07
0458:  MOVLB  4
045A:  MOVWF  x35
045C:  MOVLB  0
045E:  RCALL  027E
....................   #endif 
....................   #if SSD1306_LCDHEIGHT == 32 
....................     ssd1306_command(3); // Page end address 
....................   #endif 
....................   #if SSD1306_LCDHEIGHT == 16 
....................     ssd1306_command(1); // Page end address 
....................   #endif 
....................    
....................   for (uint16_t i = 0; i < (SSD1306_LCDWIDTH*SSD1306_LCDHEIGHT / 8); i++) { 
0460:  MOVLB  4
0462:  CLRF   x33
0464:  CLRF   x32
0466:  MOVF   x33,W
0468:  SUBLW  03
046A:  BNC   04C8
....................       // send a bunch of data in one xmission 
....................       I2C_Start(SSD1306_STREAM); 
046C:  BSF    FC5.0
046E:  BTFSC  FC5.0
0470:  BRA    046E
....................       I2C_Write(SSD1306_STREAM, _i2caddr); 
0472:  MOVFF  04,437
0476:  MOVLB  0
0478:  RCALL  0262
....................       I2C_Write(SSD1306_STREAM, 0x40); 
047A:  MOVLW  40
047C:  MOVLB  4
047E:  MOVWF  x37
0480:  MOVLB  0
0482:  RCALL  0262
....................       for (uint8_t x = 0; x < 16; x++) { 
0484:  MOVLB  4
0486:  CLRF   x34
0488:  MOVF   x34,W
048A:  SUBLW  0F
048C:  BNC   04B2
....................         I2C_Write(SSD1306_STREAM, ssd1306_buffer[i]); 
048E:  MOVLW  0A
0490:  ADDWF  x32,W
0492:  MOVWF  FE9
0494:  MOVLW  00
0496:  ADDWFC x33,W
0498:  MOVWF  FEA
049A:  MOVFF  FEF,435
049E:  MOVFF  435,437
04A2:  MOVLB  0
04A4:  RCALL  0262
....................         i++; 
04A6:  MOVLB  4
04A8:  INCF   x32,F
04AA:  BTFSC  FD8.2
04AC:  INCF   x33,F
04AE:  INCF   x34,F
04B0:  BRA    0488
....................       } 
....................       i--; 
04B2:  MOVF   x32,W
04B4:  BTFSC  FD8.2
04B6:  DECF   x33,F
04B8:  DECF   x32,F
....................       I2C_Stop(SSD1306_STREAM); 
04BA:  BSF    FC5.2
04BC:  BTFSC  FC5.2
04BE:  BRA    04BC
04C0:  INCF   x32,F
04C2:  BTFSC  FD8.2
04C4:  INCF   x33,F
04C6:  BRA    0466
....................     } 
04C8:  MOVLB  0
04CA:  RETURN 0
.................... } 
....................  
.................... void SSD1306_ClearDisplay(void) 
.................... { 
....................   for (uint16_t i = 0; i < (SSD1306_LCDWIDTH*SSD1306_LCDHEIGHT / 8); i++) 
*
0402:  MOVLB  4
0404:  CLRF   x30
0406:  CLRF   x2F
0408:  MOVF   x30,W
040A:  SUBLW  03
040C:  BNC   0424
....................     ssd1306_buffer[i] = 0; 
040E:  MOVLW  0A
0410:  ADDWF  x2F,W
0412:  MOVWF  FE9
0414:  MOVLW  00
0416:  ADDWFC x30,W
0418:  MOVWF  FEA
041A:  CLRF   FEF
041C:  INCF   x2F,F
041E:  BTFSC  FD8.2
0420:  INCF   x30,F
0422:  BRA    0408
0424:  MOVLB  0
0426:  RETURN 0
.................... } 
....................  
.................... void SSD1306_DrawLine(int16_t x0, int16_t y0, int16_t x1, int16_t y1, int1 color = TRUE) 
.................... { 
....................   int1 steep; 
....................   int8_t ystep; 
....................   uint8_t dx, dy; 
....................   int16_t err; 
....................   steep = abs(y1 - y0) > abs(x1 - x0); 
*
05BC:  MOVLB  4
05BE:  BCF    x61.0
05C0:  MOVF   x5A,W
05C2:  SUBWF  x5E,W
05C4:  MOVWF  x6F
05C6:  MOVF   x5B,W
05C8:  SUBWFB x5F,W
05CA:  MOVWF  x70
05CC:  MOVWF  03
05CE:  MOVF   x6F,W
05D0:  BTFSS  x70.7
05D2:  BRA    05E4
05D4:  MOVLW  00
05D6:  BSF    FD8.0
05D8:  SUBFWB x6F,W
05DA:  MOVWF  00
05DC:  MOVLW  00
05DE:  SUBFWB x70,W
05E0:  MOVWF  03
05E2:  MOVF   00,W
05E4:  MOVWF  x6F
05E6:  MOVFF  03,470
05EA:  MOVF   x58,W
05EC:  SUBWF  x5C,W
05EE:  MOVWF  x71
05F0:  MOVF   x59,W
05F2:  SUBWFB x5D,W
05F4:  MOVWF  x72
05F6:  MOVWF  03
05F8:  MOVF   x71,W
05FA:  BTFSS  x72.7
05FC:  BRA    060E
05FE:  MOVLW  00
0600:  BSF    FD8.0
0602:  SUBFWB x71,W
0604:  MOVWF  00
0606:  MOVLW  00
0608:  SUBFWB x72,W
060A:  MOVWF  03
060C:  MOVF   00,W
060E:  MOVWF  01
0610:  BTFSS  03.7
0612:  BRA    061A
0614:  BTFSS  x70.7
0616:  BRA    062C
0618:  BRA    061E
061A:  BTFSC  x70.7
061C:  BRA    062E
061E:  MOVF   03,W
0620:  SUBWF  x70,W
0622:  BNC   062E
0624:  BNZ   062C
0626:  MOVF   x6F,W
0628:  SUBWF  01,W
062A:  BC    062E
062C:  BSF    x61.0
....................   if (steep) { 
062E:  BTFSS  x61.0
0630:  BRA    0662
....................     ssd1306_swap(x0, y0); 
0632:  MOVFF  459,468
0636:  MOVFF  458,467
063A:  MOVFF  45B,459
063E:  MOVFF  45A,458
0642:  MOVFF  468,45B
0646:  MOVFF  467,45A
....................     ssd1306_swap(x1, y1); 
064A:  MOVFF  45D,46A
064E:  MOVFF  45C,469
0652:  MOVFF  45F,45D
0656:  MOVFF  45E,45C
065A:  MOVFF  46A,45F
065E:  MOVFF  469,45E
....................   } 
....................   if (x0 > x1) { 
0662:  BTFSS  x5D.7
0664:  BRA    066C
0666:  BTFSS  x59.7
0668:  BRA    067E
066A:  BRA    0670
066C:  BTFSC  x59.7
066E:  BRA    06AE
0670:  MOVF   x5D,W
0672:  SUBWF  x59,W
0674:  BNC   06AE
0676:  BNZ   067E
0678:  MOVF   x58,W
067A:  SUBWF  x5C,W
067C:  BC    06AE
....................     ssd1306_swap(x0, x1); 
067E:  MOVFF  459,46C
0682:  MOVFF  458,46B
0686:  MOVFF  45D,459
068A:  MOVFF  45C,458
068E:  MOVFF  46C,45D
0692:  MOVFF  46B,45C
....................     ssd1306_swap(y0, y1); 
0696:  MOVFF  45B,46E
069A:  MOVFF  45A,46D
069E:  MOVFF  45F,45B
06A2:  MOVFF  45E,45A
06A6:  MOVFF  46E,45F
06AA:  MOVFF  46D,45E
....................   } 
....................   dx = x1 - x0; 
06AE:  MOVF   x58,W
06B0:  SUBWF  x5C,W
06B2:  MOVWF  00
06B4:  MOVF   x59,W
06B6:  SUBWFB x5D,W
06B8:  MOVFF  00,463
....................   dy = abs(y1 - y0); 
06BC:  MOVF   x5A,W
06BE:  SUBWF  x5E,W
06C0:  MOVWF  x6F
06C2:  MOVF   x5B,W
06C4:  SUBWFB x5F,W
06C6:  MOVWF  x70
06C8:  MOVWF  03
06CA:  MOVF   x6F,W
06CC:  BTFSS  x70.7
06CE:  BRA    06E0
06D0:  MOVLW  00
06D2:  BSF    FD8.0
06D4:  SUBFWB x6F,W
06D6:  MOVWF  00
06D8:  MOVLW  00
06DA:  SUBFWB x70,W
06DC:  MOVWF  03
06DE:  MOVF   00,W
06E0:  MOVWF  x64
....................  
....................   err = dx / 2; 
06E2:  BCF    FD8.0
06E4:  RRCF   x63,W
06E6:  CLRF   03
06E8:  MOVWF  x65
06EA:  MOVFF  03,466
....................   if (y0 < y1) 
06EE:  BTFSS  x5B.7
06F0:  BRA    06F8
06F2:  BTFSS  x5F.7
06F4:  BRA    070A
06F6:  BRA    06FC
06F8:  BTFSC  x5F.7
06FA:  BRA    0710
06FC:  MOVF   x5B,W
06FE:  SUBWF  x5F,W
0700:  BNC   0710
0702:  BNZ   070A
0704:  MOVF   x5E,W
0706:  SUBWF  x5A,W
0708:  BC    0710
....................     ystep = 1; 
070A:  MOVLW  01
070C:  MOVWF  x62
070E:  BRA    0712
....................   else 
....................     ystep = -1; 
0710:  SETF   x62
....................  
....................   for (; x0 <= x1; x0++) { 
0712:  BTFSS  x59.7
0714:  BRA    071C
0716:  BTFSS  x5D.7
0718:  BRA    072E
071A:  BRA    0720
071C:  BTFSC  x5D.7
071E:  BRA    07AE
0720:  MOVF   x59,W
0722:  SUBWF  x5D,W
0724:  BNC   07AE
0726:  BNZ   072E
0728:  MOVF   x58,W
072A:  SUBWF  x5C,W
072C:  BNC   07AE
....................     if (steep) { 
072E:  BTFSS  x61.0
0730:  BRA    075C
....................       if(color) SSD1306_DrawPixel(y0, x0); 
0732:  MOVF   x60,F
0734:  BZ    074A
0736:  MOVFF  45A,46F
073A:  MOVFF  458,470
073E:  MOVLW  01
0740:  MOVWF  x71
0742:  MOVLB  0
0744:  RCALL  04CC
0746:  BRA    0758
0748:  MOVLB  4
....................       else      SSD1306_DrawPixel(y0, x0, FALSE); 
074A:  MOVFF  45A,46F
074E:  MOVFF  458,470
0752:  CLRF   x71
0754:  MOVLB  0
0756:  RCALL  04CC
....................     } 
0758:  BRA    0782
075A:  MOVLB  4
....................     else { 
....................       if(color) SSD1306_DrawPixel(x0, y0); 
075C:  MOVF   x60,F
075E:  BZ    0774
0760:  MOVFF  458,46F
0764:  MOVFF  45A,470
0768:  MOVLW  01
076A:  MOVWF  x71
076C:  MOVLB  0
076E:  RCALL  04CC
0770:  BRA    0782
0772:  MOVLB  4
....................       else      SSD1306_DrawPixel(x0, y0, FALSE); 
0774:  MOVFF  458,46F
0778:  MOVFF  45A,470
077C:  CLRF   x71
077E:  MOVLB  0
0780:  RCALL  04CC
....................     } 
....................     err -= dy; 
0782:  MOVLB  4
0784:  MOVF   x64,W
0786:  SUBWF  x65,F
0788:  MOVLW  00
078A:  SUBWFB x66,F
....................     if (err < 0) { 
078C:  BTFSS  x66.7
078E:  BRA    07A6
....................       y0  += ystep; 
0790:  CLRF   03
0792:  MOVF   x62,W
0794:  BTFSC  FE8.7
0796:  DECF   03,F
0798:  ADDWF  x5A,F
079A:  MOVF   03,W
079C:  ADDWFC x5B,F
....................       err += dx; 
079E:  MOVF   x63,W
07A0:  ADDWF  x65,F
07A2:  MOVLW  00
07A4:  ADDWFC x66,F
....................     } 
07A6:  INCF   x58,F
07A8:  BTFSC  FD8.2
07AA:  INCF   x59,F
07AC:  BRA    0712
....................   } 
07AE:  MOVLB  0
07B0:  RETURN 0
.................... } 
....................  
.................... void SSD1306_DrawFastHLine(uint8_t x, uint8_t y, uint8_t w, int1 color = TRUE) 
.................... { 
....................    SSD1306_DrawLine(x, y, x + w - 1, y, color); 
.................... } 
....................  
.................... void SSD1306_DrawFastVLine(uint8_t x, uint8_t y, uint8_t h, int1 color = TRUE) 
.................... { 
....................   SSD1306_DrawLine(x, y, x, y + h - 1, color); 
*
08A8:  MOVLB  4
08AA:  MOVF   x55,W
08AC:  ADDWF  x54,W
08AE:  ADDLW  FF
08B0:  MOVWF  x57
08B2:  CLRF   x59
08B4:  MOVFF  453,458
08B8:  CLRF   x5B
08BA:  MOVFF  454,45A
08BE:  CLRF   x5D
08C0:  MOVFF  453,45C
08C4:  CLRF   x5F
08C6:  MOVWF  x5E
08C8:  MOVFF  456,460
08CC:  MOVLB  0
08CE:  RCALL  05BC
08D0:  RETURN 0
.................... } 
....................  
.................... void SSD1306_FillRect(uint8_t x, uint8_t y, uint8_t w, uint8_t h, int1 color = TRUE) 
.................... { 
....................   for (int16_t i = x; i < x + w; i++) 
*
0D8E:  CLRF   03
0D90:  MOVLB  4
0D92:  MOVFF  43F,444
0D96:  MOVFF  03,445
0D9A:  MOVF   x41,W
0D9C:  ADDWF  x3F,W
0D9E:  BTFSC  x45.7
0DA0:  BRA    0DAA
0DA2:  MOVF   x45,F
0DA4:  BNZ   0DC8
0DA6:  SUBWF  x44,W
0DA8:  BC    0DC8
....................     SSD1306_DrawFastVLine(i, y, h, color); 
0DAA:  MOVFF  444,453
0DAE:  MOVFF  440,454
0DB2:  MOVFF  442,455
0DB6:  MOVFF  443,456
0DBA:  MOVLB  0
0DBC:  RCALL  08A8
0DBE:  MOVLB  4
0DC0:  INCF   x44,F
0DC2:  BTFSC  FD8.2
0DC4:  INCF   x45,F
0DC6:  BRA    0D9A
0DC8:  MOVLB  0
0DCA:  RETURN 0
.................... } 
....................  
.................... void SSD1306_FillScreen(int1 color = TRUE) { 
....................   SSD1306_FillRect(0, 0, SSD1306_LCDWIDTH, SSD1306_LCDHEIGHT, color); 
.................... } 
....................  
.................... void SSD1306_DrawCircle(int16_t x0, int16_t y0, int16_t r) 
.................... { 
....................   int16_t f = 1 - r; 
....................   int16_t ddF_x = 1; 
....................   int16_t ddF_y = -2 * r; 
....................   int16_t x = 0; 
....................   int16_t y = r; 
....................  
....................   SSD1306_DrawPixel(x0  , y0 + r); 
....................   SSD1306_DrawPixel(x0  , y0 - r); 
....................   SSD1306_DrawPixel(x0 + r, y0); 
....................   SSD1306_DrawPixel(x0 - r, y0); 
....................  
....................   while (x < y) { 
....................     if (f >= 0) { 
....................       y--; 
....................       ddF_y += 2; 
....................       f += ddF_y; 
....................     } 
....................     x++; 
....................     ddF_x += 2; 
....................     f += ddF_x; 
....................  
....................     SSD1306_DrawPixel(x0 + x, y0 + y); 
....................     SSD1306_DrawPixel(x0 - x, y0 + y); 
....................     SSD1306_DrawPixel(x0 + x, y0 - y); 
....................     SSD1306_DrawPixel(x0 - x, y0 - y); 
....................     SSD1306_DrawPixel(x0 + y, y0 + x); 
....................     SSD1306_DrawPixel(x0 - y, y0 + x); 
....................     SSD1306_DrawPixel(x0 + y, y0 - x); 
....................     SSD1306_DrawPixel(x0 - y, y0 - x); 
....................   } 
....................  
.................... } 
....................  
.................... void SSD1306_DrawCircleHelper(int16_t x0, int16_t y0, int16_t r, uint8_t cornername) 
.................... { 
....................   int16_t f     = 1 - r; 
....................   int16_t ddF_x = 1; 
....................   int16_t ddF_y = -2 * r; 
....................   int16_t x     = 0; 
....................   int16_t y     = r; 
....................  
....................   while (x < y) { 
....................     if (f >= 0) { 
....................       y--; 
....................       ddF_y += 2; 
....................       f     += ddF_y; 
....................     } 
....................     x++; 
....................     ddF_x += 2; 
....................     f     += ddF_x; 
....................     if (cornername & 0x4) { 
....................       SSD1306_DrawPixel(x0 + x, y0 + y); 
....................       SSD1306_DrawPixel(x0 + y, y0 + x); 
....................     } 
....................     if (cornername & 0x2) { 
....................       SSD1306_DrawPixel(x0 + x, y0 - y); 
....................       SSD1306_DrawPixel(x0 + y, y0 - x); 
....................     } 
....................     if (cornername & 0x8) { 
....................       SSD1306_DrawPixel(x0 - y, y0 + x); 
....................       SSD1306_DrawPixel(x0 - x, y0 + y); 
....................     } 
....................     if (cornername & 0x1) { 
....................       SSD1306_DrawPixel(x0 - y, y0 - x); 
....................       SSD1306_DrawPixel(x0 - x, y0 - y); 
....................     } 
....................   } 
....................  
.................... } 
....................  
.................... void SSD1306_FillCircle(int16_t x0, int16_t y0, int16_t r, int1 color = TRUE) 
.................... { 
....................   SSD1306_DrawFastVLine(x0, y0 - r, 2 * r + 1, color); 
*
0ADA:  MOVLB  4
0ADC:  MOVF   x36,W
0ADE:  SUBWF  x34,W
0AE0:  MOVWF  x39
0AE2:  MOVF   x37,W
0AE4:  SUBWFB x35,W
0AE6:  MOVWF  x3A
0AE8:  CLRF   x52
0AEA:  MOVLW  02
0AEC:  MOVWF  x51
0AEE:  MOVFF  437,454
0AF2:  MOVFF  436,453
0AF6:  MOVLB  0
0AF8:  RCALL  0854
0AFA:  MOVFF  02,43C
0AFE:  MOVFF  01,43B
0B02:  MOVLW  01
0B04:  MOVLB  4
0B06:  ADDWF  x3B,F
0B08:  MOVLW  00
0B0A:  ADDWFC x3C,F
0B0C:  MOVFF  432,453
0B10:  MOVFF  439,454
0B14:  MOVFF  43B,455
0B18:  MOVFF  438,456
0B1C:  MOVLB  0
0B1E:  RCALL  08A8
....................   SSD1306_FillCircleHelper(x0, y0, r, 3, 0, color); 
0B20:  MOVFF  433,43A
0B24:  MOVFF  432,439
0B28:  MOVFF  435,43C
0B2C:  MOVFF  434,43B
0B30:  MOVFF  437,43E
0B34:  MOVFF  436,43D
0B38:  MOVLW  03
0B3A:  MOVLB  4
0B3C:  MOVWF  x3F
0B3E:  CLRF   x41
0B40:  CLRF   x40
0B42:  MOVFF  438,442
0B46:  MOVLB  0
0B48:  BRA    08D2
0B4A:  RETURN 0
.................... } 
....................  
.................... // Used to do circles and roundrects 
.................... void SSD1306_FillCircleHelper(int16_t x0, int16_t y0, int16_t r, uint8_t cornername, int16_t delta, int1 color = TRUE) { 
*
08D2:  MOVLW  01
08D4:  BSF    FD8.0
08D6:  MOVLB  4
08D8:  SUBFWB x3D,W
08DA:  MOVWF  x43
08DC:  MOVLW  00
08DE:  SUBFWB x3E,W
08E0:  MOVWF  x44
08E2:  CLRF   x46
08E4:  MOVLW  01
08E6:  MOVWF  x45
08E8:  SETF   x52
08EA:  MOVLW  FE
08EC:  MOVWF  x51
08EE:  MOVFF  43E,454
08F2:  MOVFF  43D,453
08F6:  MOVLB  0
08F8:  RCALL  0854
08FA:  MOVFF  02,448
08FE:  MOVFF  01,447
0902:  MOVLB  4
0904:  CLRF   x4A
0906:  CLRF   x49
0908:  MOVFF  43E,44C
090C:  MOVFF  43D,44B
....................   int16_t f     = 1 - r; 
....................   int16_t ddF_x = 1; 
....................   int16_t ddF_y = -2 * r; 
....................   int16_t x     = 0; 
....................   int16_t y     = r; 
....................  
....................   while (x < y) { 
0910:  BTFSS  x4A.7
0912:  BRA    091A
0914:  BTFSS  x4C.7
0916:  BRA    0930
0918:  BRA    091E
091A:  BTFSC  x4C.7
091C:  BRA    0AD4
091E:  MOVF   x4A,W
0920:  SUBWF  x4C,W
0922:  BTFSS  FD8.0
0924:  BRA    0AD4
0926:  BNZ   0930
0928:  MOVF   x4B,W
092A:  SUBWF  x49,W
092C:  BTFSC  FD8.0
092E:  BRA    0AD4
....................     if (f >= 0) { 
0930:  BTFSC  x44.7
0932:  BRA    094C
....................       y--; 
0934:  MOVF   x4B,W
0936:  BTFSC  FD8.2
0938:  DECF   x4C,F
093A:  DECF   x4B,F
....................       ddF_y += 2; 
093C:  MOVLW  02
093E:  ADDWF  x47,F
0940:  MOVLW  00
0942:  ADDWFC x48,F
....................       f     += ddF_y; 
0944:  MOVF   x47,W
0946:  ADDWF  x43,F
0948:  MOVF   x48,W
094A:  ADDWFC x44,F
....................     } 
....................     x++; 
094C:  INCF   x49,F
094E:  BTFSC  FD8.2
0950:  INCF   x4A,F
....................     ddF_x += 2; 
0952:  MOVLW  02
0954:  ADDWF  x45,F
0956:  MOVLW  00
0958:  ADDWFC x46,F
....................     f     += ddF_x; 
095A:  MOVF   x45,W
095C:  ADDWF  x43,F
095E:  MOVF   x46,W
0960:  ADDWFC x44,F
....................  
....................     if (cornername & 0x01) { 
0962:  BTFSS  x3F.0
0964:  BRA    0A1A
....................       SSD1306_DrawFastVLine(x0 + x, y0 - y, 2 * y + 1 + delta, color); 
0966:  MOVF   x49,W
0968:  ADDWF  x39,W
096A:  MOVWF  x4D
096C:  MOVF   x4A,W
096E:  ADDWFC x3A,W
0970:  MOVWF  x4E
0972:  MOVF   x4B,W
0974:  SUBWF  x3B,W
0976:  MOVWF  x4F
0978:  MOVF   x4C,W
097A:  SUBWFB x3C,W
097C:  MOVWF  x50
097E:  CLRF   x52
0980:  MOVLW  02
0982:  MOVWF  x51
0984:  MOVFF  44C,454
0988:  MOVFF  44B,453
098C:  MOVLB  0
098E:  RCALL  0854
0990:  MOVFF  02,452
0994:  MOVFF  01,451
0998:  MOVLW  01
099A:  MOVLB  4
099C:  ADDWF  x51,F
099E:  MOVLW  00
09A0:  ADDWFC x52,F
09A2:  MOVF   x40,W
09A4:  ADDWF  x51,F
09A6:  MOVF   x41,W
09A8:  ADDWFC x52,F
09AA:  MOVFF  44D,453
09AE:  MOVFF  44F,454
09B2:  MOVFF  451,455
09B6:  MOVFF  442,456
09BA:  MOVLB  0
09BC:  RCALL  08A8
....................       SSD1306_DrawFastVLine(x0 + y, y0 - x, 2 * x + 1 + delta, color); 
09BE:  MOVLB  4
09C0:  MOVF   x4B,W
09C2:  ADDWF  x39,W
09C4:  MOVWF  x4D
09C6:  MOVF   x4C,W
09C8:  ADDWFC x3A,W
09CA:  MOVWF  x4E
09CC:  MOVF   x49,W
09CE:  SUBWF  x3B,W
09D0:  MOVWF  x4F
09D2:  MOVF   x4A,W
09D4:  SUBWFB x3C,W
09D6:  MOVWF  x50
09D8:  CLRF   x52
09DA:  MOVLW  02
09DC:  MOVWF  x51
09DE:  MOVFF  44A,454
09E2:  MOVFF  449,453
09E6:  MOVLB  0
09E8:  RCALL  0854
09EA:  MOVFF  02,452
09EE:  MOVFF  01,451
09F2:  MOVLW  01
09F4:  MOVLB  4
09F6:  ADDWF  x51,F
09F8:  MOVLW  00
09FA:  ADDWFC x52,F
09FC:  MOVF   x40,W
09FE:  ADDWF  x51,F
0A00:  MOVF   x41,W
0A02:  ADDWFC x52,F
0A04:  MOVFF  44D,453
0A08:  MOVFF  44F,454
0A0C:  MOVFF  451,455
0A10:  MOVFF  442,456
0A14:  MOVLB  0
0A16:  RCALL  08A8
0A18:  MOVLB  4
....................     } 
....................     if (cornername & 0x02) { 
0A1A:  BTFSS  x3F.1
0A1C:  BRA    0AD2
....................       SSD1306_DrawFastVLine(x0 - x, y0 - y, 2 * y + 1 + delta, color); 
0A1E:  MOVF   x49,W
0A20:  SUBWF  x39,W
0A22:  MOVWF  x4D
0A24:  MOVF   x4A,W
0A26:  SUBWFB x3A,W
0A28:  MOVWF  x4E
0A2A:  MOVF   x4B,W
0A2C:  SUBWF  x3B,W
0A2E:  MOVWF  x4F
0A30:  MOVF   x4C,W
0A32:  SUBWFB x3C,W
0A34:  MOVWF  x50
0A36:  CLRF   x52
0A38:  MOVLW  02
0A3A:  MOVWF  x51
0A3C:  MOVFF  44C,454
0A40:  MOVFF  44B,453
0A44:  MOVLB  0
0A46:  RCALL  0854
0A48:  MOVFF  02,452
0A4C:  MOVFF  01,451
0A50:  MOVLW  01
0A52:  MOVLB  4
0A54:  ADDWF  x51,F
0A56:  MOVLW  00
0A58:  ADDWFC x52,F
0A5A:  MOVF   x40,W
0A5C:  ADDWF  x51,F
0A5E:  MOVF   x41,W
0A60:  ADDWFC x52,F
0A62:  MOVFF  44D,453
0A66:  MOVFF  44F,454
0A6A:  MOVFF  451,455
0A6E:  MOVFF  442,456
0A72:  MOVLB  0
0A74:  RCALL  08A8
....................       SSD1306_DrawFastVLine(x0 - y, y0 - x, 2 * x + 1 + delta, color); 
0A76:  MOVLB  4
0A78:  MOVF   x4B,W
0A7A:  SUBWF  x39,W
0A7C:  MOVWF  x4D
0A7E:  MOVF   x4C,W
0A80:  SUBWFB x3A,W
0A82:  MOVWF  x4E
0A84:  MOVF   x49,W
0A86:  SUBWF  x3B,W
0A88:  MOVWF  x4F
0A8A:  MOVF   x4A,W
0A8C:  SUBWFB x3C,W
0A8E:  MOVWF  x50
0A90:  CLRF   x52
0A92:  MOVLW  02
0A94:  MOVWF  x51
0A96:  MOVFF  44A,454
0A9A:  MOVFF  449,453
0A9E:  MOVLB  0
0AA0:  RCALL  0854
0AA2:  MOVFF  02,452
0AA6:  MOVFF  01,451
0AAA:  MOVLW  01
0AAC:  MOVLB  4
0AAE:  ADDWF  x51,F
0AB0:  MOVLW  00
0AB2:  ADDWFC x52,F
0AB4:  MOVF   x40,W
0AB6:  ADDWF  x51,F
0AB8:  MOVF   x41,W
0ABA:  ADDWFC x52,F
0ABC:  MOVFF  44D,453
0AC0:  MOVFF  44F,454
0AC4:  MOVFF  451,455
0AC8:  MOVFF  442,456
0ACC:  MOVLB  0
0ACE:  RCALL  08A8
0AD0:  MOVLB  4
....................     } 
0AD2:  BRA    0910
....................   } 
0AD4:  MOVLB  0
0AD6:  GOTO   0B4A (RETURN)
....................  
.................... } 
....................  
.................... // Draw a rectangle 
.................... void SSD1306_DrawRect(uint8_t x, uint8_t y, uint8_t w, uint8_t h) 
.................... { 
....................   SSD1306_DrawFastHLine(x, y, w); 
....................   SSD1306_DrawFastHLine(x, y + h - 1, w); 
....................   SSD1306_DrawFastVLine(x, y, h); 
....................   SSD1306_DrawFastVLine(x + w - 1, y, h); 
.................... } 
....................  
.................... // Draw a rounded rectangle 
.................... void SSD1306_DrawRoundRect(uint8_t x, uint8_t y, uint8_t w, uint8_t h, uint8_t r) 
.................... { 
....................   // smarter version 
....................   SSD1306_DrawFastHLine(x + r, y, w - 2 * r); // Top 
....................   SSD1306_DrawFastHLine(x + r, y + h - 1, w - 2 * r); // Bottom 
....................   SSD1306_DrawFastVLine(x, y + r, h - 2 * r); // Left 
....................   SSD1306_DrawFastVLine(x + w - 1, y + r, h - 2 * r); // Right 
....................   // draw four corners 
....................   SSD1306_DrawCircleHelper(x + r, y + r, r, 1); 
....................   SSD1306_DrawCircleHelper(x + w - r - 1, y + r, r, 2); 
....................   SSD1306_DrawCircleHelper(x + w - r - 1, y + h - r - 1, r, 4); 
....................   SSD1306_DrawCircleHelper(x + r, y + h - r - 1, r, 8); 
.................... } 
....................  
.................... // Fill a rounded rectangle 
.................... void SSD1306_FillRoundRect(uint8_t x, uint8_t y, uint8_t w, uint8_t h, uint8_t r, int1 color = TRUE) 
.................... { 
....................   // smarter version 
....................   SSD1306_FillRect(x + r, y, w - 2 * r, h, color); 
....................   // draw four corners 
....................   SSD1306_FillCircleHelper(x + w - r - 1, y + r, r, 1, h - 2 * r - 1, color); 
....................   SSD1306_FillCircleHelper(x + r        , y + r, r, 2, h - 2 * r - 1, color); 
.................... } 
....................  
.................... // Draw a triangle 
.................... void SSD1306_DrawTriangle(uint8_t x0, uint8_t y0, uint8_t x1, uint8_t y1, uint8_t x2, uint8_t y2) 
.................... { 
....................   SSD1306_DrawLine(x0, y0, x1, y1); 
....................   SSD1306_DrawLine(x1, y1, x2, y2); 
....................   SSD1306_DrawLine(x2, y2, x0, y0); 
.................... } 
....................  
.................... // Fill a triangle 
.................... void SSD1306_FillTriangle(int16_t x0, int16_t y0, int16_t x1, int16_t y1, int16_t x2, int16_t y2, int1 color = TRUE) 
.................... { 
....................   int16_t a, b, y, last; 
....................   // Sort coordinates by Y order (y2 >= y1 >= y0) 
....................   if (y0 > y1) { 
....................     ssd1306_swap(y0, y1); ssd1306_swap(x0, x1); 
....................   } 
....................   if (y1 > y2) { 
....................     ssd1306_swap(y2, y1); ssd1306_swap(x2, x1); 
....................   } 
....................   if (y0 > y1) { 
....................     ssd1306_swap(y0, y1); ssd1306_swap(x0, x1); 
....................   } 
....................  
....................   if(y0 == y2) { // Handle awkward all-on-same-line case as its own thing 
....................     a = b = x0; 
....................     if(x1 < a)      a = x1; 
....................     else if(x1 > b) b = x1; 
....................     if(x2 < a)      a = x2; 
....................     else if(x2 > b) b = x2; 
....................     SSD1306_DrawFastHLine(a, y0, b - a + 1, color); 
....................     return; 
....................   } 
....................  
....................   int16_t 
....................   dx01 = x1 - x0, 
....................   dy01 = y1 - y0, 
....................   dx02 = x2 - x0, 
....................   dy02 = y2 - y0, 
....................   dx12 = x2 - x1, 
....................   dy12 = y2 - y1; 
....................   int32_t  sa   = 0, sb   = 0; 
....................  
....................   // For upper part of triangle, find scanline crossings for segments 
....................   // 0-1 and 0-2.  If y1=y2 (flat-bottomed triangle), the scanline y1 
....................   // is included here (and second loop will be skipped, avoiding a /0 
....................   // error there), otherwise scanline y1 is skipped here and handled 
....................   // in the second loop...which also avoids a /0 error here if y0=y1 
....................   // (flat-topped triangle). 
....................   if(y1 == y2) last = y1;   // Include y1 scanline 
....................   else         last = y1 - 1; // Skip it 
....................  
....................   for(y = y0; y <= last; y++) { 
....................     a   = x0 + sa / dy01; 
....................     b   = x0 + sb / dy02; 
....................     sa += dx01; 
....................     sb += dx02; 
....................     /* longhand: 
....................     a = x0 + (x1 - x0) * (y - y0) / (y1 - y0); 
....................     b = x0 + (x2 - x0) * (y - y0) / (y2 - y0); 
....................     */ 
....................     if(a > b) ssd1306_swap(a, b); 
....................     SSD1306_DrawFastHLine(a, y, b - a + 1, color); 
....................   } 
....................  
....................   // For lower part of triangle, find scanline crossings for segments 
....................   // 0-2 and 1-2.  This loop is skipped if y1=y2. 
....................   sa = dx12 * (y - y1); 
....................   sb = dx02 * (y - y0); 
....................   for(; y <= y2; y++) { 
....................     a   = x1 + sa / dy12; 
....................     b   = x0 + sb / dy02; 
....................     sa += dx12; 
....................     sb += dx02; 
....................     /* longhand: 
....................     a = x1 + (x2 - x1) * (y - y1) / (y2 - y1); 
....................     b = x0 + (x2 - x0) * (y - y0) / (y2 - y0); 
....................     */ 
....................     if(a > b) ssd1306_swap(a, b); 
....................     SSD1306_DrawFastHLine(a, y, b - a + 1, color); 
....................   } 
.................... } 
....................  
.................... // invert the display 
.................... void SSD1306_InvertDisplay(int1 i) 
.................... { 
....................   if (i) 
....................     ssd1306_command(SSD1306_INVERTDISPLAY_); 
....................   else 
....................     ssd1306_command(SSD1306_NORMALDISPLAY); 
.................... } 
....................  
.................... void SSD1306_SetTextWrap(int1 w) 
.................... { 
....................   wrap = w; 
.................... } 
....................  
.................... void SSD1306_DrawChar(uint8_t x, uint8_t y, uint8_t c, uint8_t size = 1) 
.................... { 
....................   SSD1306_GotoXY(x, y); 
....................   SSD1306_TextSize(size); 
....................   SSD1306_Print(c); 
.................... } 
....................  
.................... void SSD1306_DrawText(uint8_t x, uint8_t y, char *_text, uint8_t size = 1) 
.................... { 
....................   SSD1306_GotoXY(x, y); 
*
0F82:  MOVFF  431,436
0F86:  MOVFF  432,437
0F8A:  BRA    0D5C
....................   SSD1306_TextSize(size); 
0F8C:  MOVFF  435,436
0F90:  BRA    0D7A
....................   while(*_text != '\0') 
0F92:  MOVFF  434,03
0F96:  MOVLB  4
0F98:  MOVFF  433,FE9
0F9C:  MOVFF  434,FEA
0FA0:  MOVF   FEF,F
0FA2:  BZ    0FC8
....................     SSD1306_Print(*_text++); 
0FA4:  MOVFF  434,03
0FA8:  MOVF   x33,W
0FAA:  INCF   x33,F
0FAC:  BTFSC  FD8.2
0FAE:  INCF   x34,F
0FB0:  MOVWF  FE9
0FB2:  MOVFF  03,FEA
0FB6:  MOVFF  FEF,436
0FBA:  MOVFF  436,437
0FBE:  MOVLB  0
0FC0:  BRA    0DCC
0FC2:  MOVLB  0
0FC4:  BRA    0F92
0FC6:  MOVLB  4
0FC8:  MOVLB  0
0FCA:  RETURN 0
....................  
.................... } 
....................  
.................... // move cursor to position (x, y) 
.................... void SSD1306_GotoXY(uint8_t x, uint8_t y) 
.................... { 
....................   if((x >= SSD1306_LCDWIDTH) || (y >= SSD1306_LCDHEIGHT)) 
*
0D5C:  MOVLB  4
0D5E:  MOVF   x36,W
0D60:  SUBLW  7F
0D62:  BNC   0D6A
0D64:  MOVF   x37,W
0D66:  SUBLW  3F
0D68:  BC    0D6C
....................     return; 
0D6A:  BRA    0D74
....................   x_pos = x; 
0D6C:  MOVFF  436,06
....................   y_pos = y; 
0D70:  MOVFF  437,07
0D74:  MOVLB  0
0D76:  GOTO   0F8C (RETURN)
.................... } 
....................  
.................... // set text size 
.................... void SSD1306_TextSize(uint8_t t_size) 
.................... { 
....................   if(t_size < 1) 
0D7A:  MOVLB  4
0D7C:  MOVF   x36,F
0D7E:  BNZ   0D84
....................     t_size = 1; 
0D80:  MOVLW  01
0D82:  MOVWF  x36
....................   text_size = t_size; 
0D84:  MOVFF  436,08
0D88:  MOVLB  0
0D8A:  GOTO   0F92 (RETURN)
.................... } 
....................  
.................... /* print single char 
....................     \a  Set cursor position to upper left (0, 0) 
....................     \b  Move back one position 
....................     \n  Go to start of current line 
....................     \r  Go to line below 
.................... */ 
.................... void SSD1306_Print(uint8_t c) 
.................... { 
....................   int1 _color; 
....................   uint8_t i, j, line; 
....................    
....................   if (c == ' ' && x_pos == 0 && wrap) 
*
0DCC:  MOVLB  4
0DCE:  MOVF   x37,W
0DD0:  SUBLW  20
0DD2:  BNZ   0DDE
0DD4:  MOVF   06,F
0DD6:  BNZ   0DDE
0DD8:  BTFSS  09.0
0DDA:  BRA    0DDE
....................     return; 
0DDC:  BRA    0F7C
....................   if(c == '\a') { 
0DDE:  MOVF   x37,W
0DE0:  SUBLW  07
0DE2:  BNZ   0DEC
....................     x_pos = y_pos = 0; 
0DE4:  CLRF   07
0DE6:  MOVFF  07,06
....................     return; 
0DEA:  BRA    0F7C
....................   } 
....................   if( (c == '\b') && (x_pos >= text_size * 6) ) { 
0DEC:  MOVF   x37,W
0DEE:  SUBLW  08
0DF0:  BNZ   0E06
0DF2:  MOVF   08,W
0DF4:  MULLW  06
0DF6:  MOVF   FF3,W
0DF8:  SUBWF  06,W
0DFA:  BNC   0E06
....................     x_pos -= text_size * 6; 
0DFC:  MOVF   08,W
0DFE:  MULLW  06
0E00:  MOVF   FF3,W
0E02:  SUBWF  06,F
....................     return; 
0E04:  BRA    0F7C
....................   } 
....................   if(c == '\r') { 
0E06:  MOVF   x37,W
0E08:  SUBLW  0D
0E0A:  BNZ   0E10
....................     x_pos = 0; 
0E0C:  CLRF   06
....................     return; 
0E0E:  BRA    0F7C
....................   } 
....................   if(c == '\n') { 
0E10:  MOVF   x37,W
0E12:  SUBLW  0A
0E14:  BNZ   0E2E
....................     y_pos += text_size * 8; 
0E16:  MOVF   08,W
0E18:  MULLW  08
0E1A:  MOVF   FF3,W
0E1C:  ADDWF  07,F
....................     if((y_pos + text_size * 7) > SSD1306_LCDHEIGHT) 
0E1E:  MOVF   08,W
0E20:  MULLW  07
0E22:  MOVF   FF3,W
0E24:  ADDWF  07,W
0E26:  SUBLW  40
0E28:  BC    0E2C
....................       y_pos = 0; 
0E2A:  CLRF   07
....................     return; 
0E2C:  BRA    0F7C
....................   } 
....................  
....................   if((c < ' ') || (c > '~')) 
0E2E:  MOVF   x37,W
0E30:  SUBLW  1F
0E32:  BC    0E3A
0E34:  MOVF   x37,W
0E36:  SUBLW  7E
0E38:  BC    0E3E
....................     c = '?'; 
0E3A:  MOVLW  3F
0E3C:  MOVWF  x37
....................    
....................   for(i = 0; i < 5; i++ ) { 
0E3E:  CLRF   x39
0E40:  MOVF   x39,W
0E42:  SUBLW  04
0E44:  BNC   0F10
....................     if(c < 'S') 
0E46:  MOVF   x37,W
0E48:  SUBLW  52
0E4A:  BNC   0E70
....................       line = font[(c - ' ') * 5 + i]; 
0E4C:  MOVLW  20
0E4E:  SUBWF  x37,W
0E50:  MULLW  05
0E52:  MOVF   FF3,W
0E54:  ADDWF  x39,W
0E56:  CLRF   03
0E58:  MOVFF  FF2,43C
0E5C:  BCF    FF2.7
0E5E:  MOVLB  0
0E60:  CALL   0004
0E64:  MOVLB  4
0E66:  BTFSC  x3C.7
0E68:  BSF    FF2.7
0E6A:  MOVWF  01
0E6C:  MOVWF  x3B
0E6E:  BRA    0E90
....................     else 
....................       line = font2[(c - 'S') * 5 + i]; 
0E70:  MOVLW  53
0E72:  SUBWF  x37,W
0E74:  MULLW  05
0E76:  MOVF   FF3,W
0E78:  ADDWF  x39,W
0E7A:  CLRF   03
0E7C:  MOVFF  FF2,43C
0E80:  BCF    FF2.7
0E82:  MOVLB  0
0E84:  CALL   0114
0E88:  MOVLB  4
0E8A:  BTFSC  x3C.7
0E8C:  BSF    FF2.7
0E8E:  MOVWF  x3B
....................      
....................     for(j = 0; j < 7; j++, line >>= 1) { 
0E90:  CLRF   x3A
0E92:  MOVF   x3A,W
0E94:  SUBLW  06
0E96:  BNC   0F0C
....................       if(line & 0x01) 
0E98:  BTFSS  x3B.0
0E9A:  BRA    0EA0
....................         _color = TRUE; 
0E9C:  BSF    x38.0
0E9E:  BRA    0EA2
....................       else 
....................         _color = FALSE; 
0EA0:  BCF    x38.0
....................       if(text_size == 1) SSD1306_DrawPixel(x_pos + i, y_pos + j, _color); 
0EA2:  DECFSZ 08,W
0EA4:  BRA    0ECE
0EA6:  MOVF   x39,W
0EA8:  ADDWF  06,W
0EAA:  MOVWF  x3C
0EAC:  MOVF   x3A,W
0EAE:  ADDWF  07,W
0EB0:  MOVWF  x3D
0EB2:  MOVLW  00
0EB4:  BTFSC  x38.0
0EB6:  MOVLW  01
0EB8:  MOVWF  x3E
0EBA:  MOVFF  43C,46F
0EBE:  MOVFF  43D,470
0EC2:  MOVWF  x71
0EC4:  MOVLB  0
0EC6:  CALL   04CC
0ECA:  BRA    0F00
0ECC:  MOVLB  4
....................       else               SSD1306_FillRect(x_pos + (i * text_size), y_pos + (j * text_size), text_size, text_size, _color); 
0ECE:  MOVF   x39,W
0ED0:  MULWF  08
0ED2:  MOVF   FF3,W
0ED4:  ADDWF  06,W
0ED6:  MOVWF  x3C
0ED8:  MOVF   x3A,W
0EDA:  MULWF  08
0EDC:  MOVF   FF3,W
0EDE:  ADDWF  07,W
0EE0:  MOVWF  x3D
0EE2:  MOVLW  00
0EE4:  BTFSC  x38.0
0EE6:  MOVLW  01
0EE8:  MOVWF  x3E
0EEA:  MOVFF  43C,43F
0EEE:  MOVFF  43D,440
0EF2:  MOVFF  08,441
0EF6:  MOVFF  08,442
0EFA:  MOVWF  x43
0EFC:  MOVLB  0
0EFE:  RCALL  0D8E
0F00:  MOVLB  4
0F02:  MOVF   x3A,W
0F04:  INCF   x3A,F
0F06:  BCF    FD8.0
0F08:  RRCF   x3B,F
0F0A:  BRA    0E92
....................     } 
0F0C:  INCF   x39,F
0F0E:  BRA    0E40
....................   } 
....................  
....................   SSD1306_FillRect(x_pos + (5 * text_size), y_pos, text_size, 7 * text_size, FALSE); 
0F10:  MOVF   08,W
0F12:  MULLW  05
0F14:  MOVF   FF3,W
0F16:  ADDWF  06,W
0F18:  MOVWF  x3C
0F1A:  MOVF   08,W
0F1C:  MULLW  07
0F1E:  MOVFF  FF3,43D
0F22:  MOVFF  43C,43F
0F26:  MOVFF  07,440
0F2A:  MOVFF  08,441
0F2E:  MOVFF  43D,442
0F32:  CLRF   x43
0F34:  MOVLB  0
0F36:  RCALL  0D8E
....................    
....................   x_pos += text_size * 6; 
0F38:  MOVF   08,W
0F3A:  MULLW  06
0F3C:  MOVF   FF3,W
0F3E:  ADDWF  06,F
....................  
....................   if( x_pos > (SSD1306_LCDWIDTH + text_size * 6) ) 
0F40:  MOVF   08,W
0F42:  MULLW  06
0F44:  MOVF   FF3,W
0F46:  ADDLW  80
0F48:  SUBWF  06,W
0F4A:  BZ    0F52
0F4C:  BNC   0F52
....................     x_pos = SSD1306_LCDWIDTH; 
0F4E:  MOVLW  80
0F50:  MOVWF  06
....................  
....................   if (wrap && (x_pos + (text_size * 5)) > SSD1306_LCDWIDTH) 
0F52:  BTFSS  09.0
0F54:  BRA    0F7A
0F56:  MOVF   08,W
0F58:  MULLW  05
0F5A:  MOVF   FF3,W
0F5C:  ADDWF  06,W
0F5E:  SUBLW  80
0F60:  BC    0F7A
....................   { 
....................     x_pos = 0; 
0F62:  CLRF   06
....................     y_pos += text_size * 8; 
0F64:  MOVF   08,W
0F66:  MULLW  08
0F68:  MOVF   FF3,W
0F6A:  ADDWF  07,F
....................     if((y_pos + text_size * 7) > SSD1306_LCDHEIGHT) 
0F6C:  MOVF   08,W
0F6E:  MULLW  07
0F70:  MOVF   FF3,W
0F72:  ADDWF  07,W
0F74:  SUBLW  40
0F76:  BC    0F7A
....................       y_pos = 0; 
0F78:  CLRF   07
0F7A:  MOVLB  4
....................   } 
0F7C:  MOVLB  0
0F7E:  GOTO   0F92 (RETURN)
.................... } 
....................  
.................... // print custom char (dimension: 7x5 pixel) 
.................... void SSD1306_PutCustomC(rom uint8_t *c) 
.................... { 
....................   int1 _color; 
....................   uint8_t i, j, line; 
....................    
....................   for(i = 0; i < 5; i++ ) { 
....................     line = c[i]; 
....................  
....................     for(j = 0; j < 7; j++, line >>= 1) { 
....................       if(line & 0x01) 
....................         _color = TRUE; 
....................       else 
....................         _color = FALSE; 
....................       if(text_size == 1) SSD1306_DrawPixel(x_pos + i, y_pos + j, _color); 
....................       else               SSD1306_FillRect(x_pos + (i * text_size), y_pos + (j * text_size), text_size, text_size, _color); 
....................     } 
....................   } 
....................  
....................   SSD1306_FillRect(x_pos + (5 * text_size), y_pos, text_size, 7 * text_size, FALSE); 
....................  
....................   x_pos += (text_size * 6); 
....................  
....................   if( x_pos > (SSD1306_LCDWIDTH + text_size * 6) ) 
....................     x_pos = SSD1306_LCDWIDTH; 
....................  
....................   if (wrap && (x_pos + (text_size * 5)) > SSD1306_LCDWIDTH) 
....................   { 
....................     x_pos = 0; 
....................     y_pos += text_size * 8; 
....................     if((y_pos + text_size * 7) > SSD1306_LCDHEIGHT) 
....................       y_pos = 0; 
....................   } 
.................... } 
....................  
.................... // draw BMP stored in ROM 
.................... void SSD1306_ROMBMP(uint8_t x, uint8_t y, rom uint8_t *bitmap, uint8_t w, uint8_t h) 
.................... { 
....................   for( uint16_t i = 0; i < h/8; i++ ) 
....................   {     
....................     for( uint16_t j = 0; j < (uint16_t)w * 8; j++ ) 
....................     {       
....................       if( bit_test(bitmap[j/8 + i*w], j % 8) == 1 ) 
....................         SSD1306_DrawPixel(x + j/8, y + i*8 + (j % 8)); 
....................       else 
....................         SSD1306_DrawPixel(x + j/8, y + i*8 + (j % 8), 0);   
....................     } 
....................   } 
.................... } 
....................  
.................... // end of driver code. 
....................  
....................  
....................  
....................  
.................... //#use RS232(BAUD = 9600, BITS = 8, PARITY = N, XMIT = PIN_C6, RCV = PIN_C7) 
.................... char buffer[10];// Posicin  de fila 
.................... char buffer2[10];//Posicin  de columna 
.................... int valorPot1=0 , valorPot2=0  , dire=1 , posbx=15 , posby=15; 
.................... boolean over=false;//verificar si choque erroneo 
.................... void monvimientoCircle(int dire , int x , int y);// se encarga de mover la bola 
.................... boolean validarChoqueCorrecrto(posbx , int x );//verifica si la bola al tocar el borde coencide con la raqueta 
.................... void posLinea(int x , int y){ 
....................  SSD1306_DrawLine(x , y , x  , y + 10 ); 
*
07B2:  MOVLW  0A
07B4:  MOVLB  4
07B6:  ADDWF  x33,W
07B8:  MOVWF  x34
07BA:  CLRF   x59
07BC:  MOVFF  432,458
07C0:  CLRF   x5B
07C2:  MOVFF  433,45A
07C6:  CLRF   x5D
07C8:  MOVFF  432,45C
07CC:  CLRF   x5F
07CE:  MOVWF  x5E
07D0:  MOVLW  01
07D2:  MOVWF  x60
07D4:  MOVLB  0
07D6:  RCALL  05BC
07D8:  RETURN 0
.................... } 
.................... int cambioPot(int id , int columna ){ 
....................  set_adc_channel(id); 
*
0806:  MOVLB  4
0808:  RLCF   x2F,W
080A:  MOVWF  00
080C:  RLCF   00,F
080E:  RLCF   00,F
0810:  MOVLW  F8
0812:  ANDWF  00,F
0814:  MOVF   FC2,W
0816:  ANDLW  C7
0818:  IORWF  00,W
081A:  MOVWF  FC2
....................  int  valor = read_adc(); 
081C:  BSF    FC2.2
081E:  BTFSC  FC2.2
0820:  BRA    081E
0822:  MOVFF  FC4,431
....................  delay_us(3); 
0826:  MOVLW  04
0828:  MOVWF  00
082A:  DECFSZ 00,F
082C:  BRA    082A
082E:  BRA    0830
....................  valor=valor/5; 
0830:  MOVFF  431,432
0834:  MOVLW  05
0836:  MOVWF  x33
0838:  MOVLB  0
083A:  RCALL  07DA
083C:  MOVFF  01,431
....................  posLinea(columna , valor); 
0840:  MOVFF  430,432
0844:  MOVFF  431,433
0848:  RCALL  07B2
....................  return valor; 
084A:  MOVLB  4
084C:  MOVFF  431,01
0850:  MOVLB  0
0852:  RETURN 0
....................   
.................... } 
.................... main(){ 
*
1094:  CLRF   FF8
1096:  BCF    FD0.7
1098:  BSF    F94.3
109A:  BSF    F94.4
109C:  MOVLW  0C
109E:  MOVWF  FC8
10A0:  MOVLW  28
10A2:  MOVWF  FC6
10A4:  BCF    FC7.7
10A6:  BCF    FC7.6
10A8:  BSF    09.0
10AA:  MOVLB  4
10AC:  CLRF   x1E
10AE:  CLRF   x1F
10B0:  MOVLW  01
10B2:  MOVWF  x20
10B4:  MOVLW  0F
10B6:  MOVWF  x21
10B8:  MOVWF  x22
10BA:  BCF    09.1
10BC:  CLRF   x24
10BE:  CLRF   x23
10C0:  BSF    FC1.0
10C2:  BSF    FC1.1
10C4:  BSF    FC1.2
10C6:  BCF    FC1.3
10C8:  BRA    133A
10CA:  DATA 3F,40
10CC:  DATA 0A,00
10CE:  DATA 03,80
10D0:  DATA 80,80
10D2:  DATA 80,0F
10D4:  DATA C0,00
10D6:  DATA 04,80
10D8:  DATA 80,80
10DA:  DATA C0,C0
10DC:  DATA 3F,C0
10DE:  DATA 00,08
10E0:  DATA 80,80
10E2:  DATA C0,E0
10E4:  DATA F0,F8
10E6:  DATA FC,F8
10E8:  DATA E0,11
10EA:  DATA C0,00
10EC:  DATA 05,C0
10EE:  DATA 80,03
10F0:  DATA 80,00
10F2:  DATA 80,80
10F4:  DATA 04,C0
10F6:  DATA 00,05
10F8:  DATA C0,80
10FA:  DATA 04,80
10FC:  DATA 00,FF
10FE:  DATA FF,FF
1100:  DATA 04,C0
1102:  DATA 00,04
1104:  DATA C0,80
1106:  DATA 0F,80
1108:  DATA 00,00
110A:  DATA 80,80
110C:  DATA 00,00
110E:  DATA 80,FF
1110:  DATA FF,80
1112:  DATA 80,00
1114:  DATA 80,80
1116:  DATA 00,04
1118:  DATA C0,80
111A:  DATA 03,80
111C:  DATA 00,80
111E:  DATA 80,05
1120:  DATA C0,00
1122:  DATA 0E,80
1124:  DATA 80,80
1126:  DATA 00,00
1128:  DATA 8C,8E
112A:  DATA 84,00
112C:  DATA 00,80
112E:  DATA F8,F8
1130:  DATA F8,80
1132:  DATA 0D,C0
1134:  DATA 00,0C
1136:  DATA C0,F0
1138:  DATA 0C,80
113A:  DATA E0,E0
113C:  DATA C0,80
113E:  DATA 00,E0
1140:  DATA FC,FE
1142:  DATA FF,FF
1144:  DATA FF,7F
1146:  DATA 05,C0
1148:  DATA FF,0E
114A:  DATA C0,00
114C:  DATA 03,80
114E:  DATA FE,FF
1150:  DATA C7,04
1152:  DATA C0,01
1154:  DATA 08,80
1156:  DATA 83,FF
1158:  DATA FF,00
115A:  DATA 00,7C
115C:  DATA FE,C7
115E:  DATA 04,C0
1160:  DATA 01,35
1162:  DATA 80,83
1164:  DATA FF,FF
1166:  DATA FF,00
1168:  DATA 38,FE
116A:  DATA C7,83
116C:  DATA 01,01
116E:  DATA 01,83
1170:  DATA C7,FF
1172:  DATA FF,00
1174:  DATA 00,01
1176:  DATA FF,FF
1178:  DATA 01,01
117A:  DATA 00,FF
117C:  DATA FF,07
117E:  DATA 01,01
1180:  DATA 01,00
1182:  DATA 00,7F
1184:  DATA FF,80
1186:  DATA 00,00
1188:  DATA 00,FF
118A:  DATA FF,7F
118C:  DATA 00,00
118E:  DATA FF,FF
1190:  DATA FF,00
1192:  DATA 00,01
1194:  DATA FF,FF
1196:  DATA FF,01
1198:  DATA 0D,C0
119A:  DATA 00,05
119C:  DATA 80,03
119E:  DATA 0F,3F
11A0:  DATA 7F,7F
11A2:  DATA 07,C0
11A4:  DATA FF,0C
11A6:  DATA 80,E7
11A8:  DATA C7,C7
11AA:  DATA 8F,8F
11AC:  DATA 9F,BF
11AE:  DATA FF,FF
11B0:  DATA C3,C0
11B2:  DATA F0,05
11B4:  DATA C0,FF
11B6:  DATA 08,C0
11B8:  DATA FC,08
11BA:  DATA 80,F8
11BC:  DATA F8,F0
11BE:  DATA F0,E0
11C0:  DATA C0,00
11C2:  DATA 01,05
11C4:  DATA C0,03
11C6:  DATA 03,80
11C8:  DATA 01,03
11CA:  DATA 03,04
11CC:  DATA C0,00
11CE:  DATA 01,80
11D0:  DATA 01,04
11D2:  DATA C0,03
11D4:  DATA 08,80
11D6:  DATA 01,01
11D8:  DATA 03,01
11DA:  DATA 00,00
11DC:  DATA 00,01
11DE:  DATA 04,C0
11E0:  DATA 03,0E
11E2:  DATA 80,01
11E4:  DATA 01,03
11E6:  DATA 03,00
11E8:  DATA 00,00
11EA:  DATA 03,03
11EC:  DATA 00,00
11EE:  DATA 00,03
11F0:  DATA 03,07
11F2:  DATA C0,00
11F4:  DATA 01,80
11F6:  DATA 01,05
11F8:  DATA C0,03
11FA:  DATA 0D,80
11FC:  DATA 01,00
11FE:  DATA 00,00
1200:  DATA 01,03
1202:  DATA 01,00
1204:  DATA 00,00
1206:  DATA 03,03
1208:  DATA 01,11
120A:  DATA C0,00
120C:  DATA 05,80
120E:  DATA 80,C0
1210:  DATA E0,F0
1212:  DATA F9,05
1214:  DATA C0,FF
1216:  DATA 0C,80
1218:  DATA 3F,1F
121A:  DATA 0F,87
121C:  DATA C7,F7
121E:  DATA FF,FF
1220:  DATA 1F,1F
1222:  DATA 3D,FC
1224:  DATA 04,C0
1226:  DATA F8,02
1228:  DATA 80,7C
122A:  DATA 7D,08
122C:  DATA C0,FF
122E:  DATA 07,80
1230:  DATA 7F,3F
1232:  DATA 0F,07
1234:  DATA 00,30
1236:  DATA 30,16
1238:  DATA C0,00
123A:  DATA 03,80
123C:  DATA FE,FE
123E:  DATA FC,16
1240:  DATA C0,00
1242:  DATA 02,80
1244:  DATA E0,C0
1246:  DATA 0B,C0
1248:  DATA 00,02
124A:  DATA 80,30
124C:  DATA 30,15
124E:  DATA C0,00
1250:  DATA 02,80
1252:  DATA C0,FE
1254:  DATA 09,C0
1256:  DATA FF,0C
1258:  DATA 80,7F
125A:  DATA 7F,3F
125C:  DATA 1F,0F
125E:  DATA 07,1F
1260:  DATA 7F,FF
1262:  DATA FF,F8
1264:  DATA F8,05
1266:  DATA C0,FF
1268:  DATA 07,80
126A:  DATA FE,F8
126C:  DATA E0,00
126E:  DATA 00,00
1270:  DATA 01,08
1272:  DATA C0,00
1274:  DATA 1F,80
1276:  DATA FE,FE
1278:  DATA 00,00
127A:  DATA 00,FC
127C:  DATA FE,FC
127E:  DATA 0C,06
1280:  DATA 06,0E
1282:  DATA FC,F8
1284:  DATA 00,00
1286:  DATA F0,F8
1288:  DATA 1C,0E
128A:  DATA 06,06
128C:  DATA 06,0C
128E:  DATA FF,FF
1290:  DATA FF,00
1292:  DATA 00,FE
1294:  DATA FE,04
1296:  DATA C0,00
1298:  DATA 31,80
129A:  DATA FC,FE
129C:  DATA FC,00
129E:  DATA 18,3C
12A0:  DATA 7E,66
12A2:  DATA E6,CE
12A4:  DATA 84,00
12A6:  DATA 00,06
12A8:  DATA FF,FF
12AA:  DATA 06,06
12AC:  DATA FC,FE
12AE:  DATA FC,0C
12B0:  DATA 06,06
12B2:  DATA 06,00
12B4:  DATA 00,FE
12B6:  DATA FE,00
12B8:  DATA 00,C0
12BA:  DATA F8,FC
12BC:  DATA 4E,46
12BE:  DATA 46,46
12C0:  DATA 4E,7C
12C2:  DATA 78,40
12C4:  DATA 18,3C
12C6:  DATA 76,E6
12C8:  DATA CE,CC
12CA:  DATA 80,14
12CC:  DATA C0,00
12CE:  DATA 05,80
12D0:  DATA 01,07
12D2:  DATA 0F,1F
12D4:  DATA 1F,04
12D6:  DATA C0,3F
12D8:  DATA 03,80
12DA:  DATA 1F,0F
12DC:  DATA 03,0C
12DE:  DATA C0,00
12E0:  DATA 08,80
12E2:  DATA 0F,0F
12E4:  DATA 00,00
12E6:  DATA 00,0F
12E8:  DATA 0F,0F
12EA:  DATA 04,C0
12EC:  DATA 00,2C
12EE:  DATA 80,0F
12F0:  DATA 0F,00
12F2:  DATA 00,03
12F4:  DATA 07,0E
12F6:  DATA 0C,18
12F8:  DATA 18,0C
12FA:  DATA 06,0F
12FC:  DATA 0F,0F
12FE:  DATA 00,00
1300:  DATA 01,0F
1302:  DATA 0E,0C
1304:  DATA 18,0C
1306:  DATA 0F,07
1308:  DATA 01,00
130A:  DATA 04,0E
130C:  DATA 0C,18
130E:  DATA 0C,0F
1310:  DATA 07,00
1312:  DATA 00,00
1314:  DATA 0F,0F
1316:  DATA 00,00
1318:  DATA 0F,0F
131A:  DATA 0F,06
131C:  DATA C0,00
131E:  DATA 16,80
1320:  DATA 0F,0F
1322:  DATA 00,00
1324:  DATA 00,07
1326:  DATA 07,0C
1328:  DATA 0C,18
132A:  DATA 1C,0C
132C:  DATA 06,06
132E:  DATA 00,04
1330:  DATA 0E,0C
1332:  DATA 18,0C
1334:  DATA 0F,07
1336:  DATA 80,C0
1338:  DATA 00,00
133A:  MOVLW  00
133C:  MOVWF  FF8
133E:  MOVLW  10
1340:  MOVWF  FF7
1342:  MOVLW  CA
1344:  MOVWF  FF6
1346:  TBLRD*+
1348:  MOVF   FF5,W
134A:  MOVWF  00
134C:  XORLW  00
134E:  BZ    1376
1350:  TBLRD*+
1352:  MOVF   FF5,W
1354:  MOVWF  01
1356:  BTFSC  FE8.7
1358:  BRA    1364
135A:  ANDLW  0F
135C:  MOVWF  FEA
135E:  TBLRD*+
1360:  MOVFF  FF5,FE9
1364:  BTFSC  01.6
1366:  TBLRD*+
1368:  BTFSS  01.6
136A:  TBLRD*+
136C:  MOVFF  FF5,FEE
1370:  DCFSNZ 00,F
1372:  BRA    1346
1374:  BRA    1368
1376:  CLRF   FF8
....................  
....................  //setup_adc_ports(sAN1|sAN2); 
.................... // setup_adc(ADC_CLOCK_DIV_2); 
....................  //|AN7 
....................  setup_adc_ports(all_analog); 
1378:  BCF    FC1.0
137A:  BCF    FC1.1
137C:  BCF    FC1.2
137E:  BCF    FC1.3
....................  setup_adc(ADC_CLOCK_DIV_2); 
1380:  BCF    FC1.6
1382:  BCF    FC2.6
1384:  BCF    FC2.7
1386:  BCF    FC1.7
1388:  BSF    FC2.0
....................  
....................  // la direccin puede ser I2C addr = 0x7A 0 0x78 
....................   SSD1306_Begin(SSD1306_SWITCHCAPVCC, SSD1306_I2C_ADDRESS); 
138A:  MOVLW  02
138C:  MOVWF  x2F
138E:  MOVLW  78
1390:  MOVWF  x30
1392:  MOVLB  0
1394:  GOTO   02A4
....................  
....................   delay_ms(100); 
1398:  MOVLW  64
139A:  MOVLB  4
139C:  MOVWF  x32
139E:  MOVLB  0
13A0:  CALL   023A
....................   SSD1306_ClearDisplay(); 
13A4:  CALL   0402
....................   SSD1306_Display(); 
13A8:  CALL   0428
....................   posLinea(10 , 10);//poscion de la linea 
13AC:  MOVLW  0A
13AE:  MOVLB  4
13B0:  MOVWF  x32
13B2:  MOVWF  x33
13B4:  MOVLB  0
13B6:  CALL   07B2
....................   SSD1306_Display(); 
13BA:  CALL   0428
....................   delay_ms(100); 
13BE:  MOVLW  64
13C0:  MOVLB  4
13C2:  MOVWF  x32
13C4:  MOVLB  0
13C6:  CALL   023A
....................   SSD1306_ClearDisplay(); 
13CA:  CALL   0402
....................   posLinea(20 , 20); 
13CE:  MOVLW  14
13D0:  MOVLB  4
13D2:  MOVWF  x32
13D4:  MOVWF  x33
13D6:  MOVLB  0
13D8:  CALL   07B2
....................     SSD1306_Display(); 
13DC:  CALL   0428
....................      
....................     //leo valores del potenciometro 
....................       
....................   while(true){ 
....................   SSD1306_ClearDisplay(); 
13E0:  CALL   0402
....................   valorPot1= cambioPot(0 , 0); 
13E4:  MOVLB  4
13E6:  CLRF   x2F
13E8:  CLRF   x30
13EA:  MOVLB  0
13EC:  CALL   0806
13F0:  MOVFF  01,41E
....................   valorPot2= cambioPot(0 , 127); 
13F4:  MOVLB  4
13F6:  CLRF   x2F
13F8:  MOVLW  7F
13FA:  MOVWF  x30
13FC:  MOVLB  0
13FE:  CALL   0806
1402:  MOVFF  01,41F
....................   monvimientoCircle(dire , posbx , posby); 
1406:  MOVFF  420,42F
140A:  MOVFF  421,430
140E:  MOVFF  422,431
1412:  GOTO   0B7C
....................   
.................... if(over){// si perdio 
1416:  BTFSS  09.1
1418:  BRA    1542
.................... SSD1306_ClearDisplay(); 
141A:  CALL   0402
.................... SSD1306_DrawText(40 , 30 , "game over"); 
141E:  MOVLW  04
1420:  MOVWF  FEA
1422:  MOVLW  25
1424:  MOVWF  FE9
1426:  MOVFF  FF2,42F
142A:  BCF    FF2.7
142C:  MOVLW  0A
142E:  MOVWF  01
1430:  CLRF   FF7
1432:  MOVLW  00
1434:  CALL   0200
1438:  TBLRD*-
143A:  TBLRD*+
143C:  MOVFF  FF5,FEE
1440:  DECFSZ 01,F
1442:  BRA    143A
1444:  MOVLB  4
1446:  BTFSC  x2F.7
1448:  BSF    FF2.7
144A:  MOVLW  28
144C:  MOVWF  x31
144E:  MOVLW  1E
1450:  MOVWF  x32
1452:  MOVLW  04
1454:  MOVWF  x34
1456:  MOVLW  25
1458:  MOVWF  x33
145A:  MOVLW  01
145C:  MOVWF  x35
145E:  MOVLB  0
1460:  RCALL  0F82
....................  
....................       sprintf(buffer, "columna = %u", posbx);                      // Convierte el valor entero a una cadena 
1462:  MOVLW  04
1464:  MOVLB  4
1466:  MOVWF  x24
1468:  MOVLW  0A
146A:  MOVWF  x23
146C:  MOVLW  1A
146E:  MOVWF  FF6
1470:  MOVLW  02
1472:  MOVWF  FF7
1474:  MOVLW  0A
1476:  MOVWF  x2F
1478:  MOVLB  0
147A:  RCALL  0FEC
147C:  MOVFF  421,42F
1480:  MOVLW  1B
1482:  MOVLB  4
1484:  MOVWF  x30
1486:  MOVLB  0
1488:  RCALL  1014
....................       SSD1306_DrawText(40, 40, buffer, 1);  
148A:  MOVLW  28
148C:  MOVLB  4
148E:  MOVWF  x31
1490:  MOVWF  x32
1492:  MOVLW  04
1494:  MOVWF  x34
1496:  MOVLW  0A
1498:  MOVWF  x33
149A:  MOVLW  01
149C:  MOVWF  x35
149E:  MOVLB  0
14A0:  RCALL  0F82
....................       sprintf(buffer, "fila = %u", posby);                        // Convierte el valor entero a una cadena 
14A2:  MOVLW  04
14A4:  MOVLB  4
14A6:  MOVWF  x24
14A8:  MOVLW  0A
14AA:  MOVWF  x23
14AC:  MOVLW  28
14AE:  MOVWF  FF6
14B0:  MOVLW  02
14B2:  MOVWF  FF7
14B4:  MOVLW  07
14B6:  MOVWF  x2F
14B8:  MOVLB  0
14BA:  RCALL  0FEC
14BC:  MOVFF  422,42F
14C0:  MOVLW  1B
14C2:  MOVLB  4
14C4:  MOVWF  x30
14C6:  MOVLB  0
14C8:  RCALL  1014
....................       SSD1306_DrawText(40, 40, buffer, 1);  
14CA:  MOVLW  28
14CC:  MOVLB  4
14CE:  MOVWF  x31
14D0:  MOVWF  x32
14D2:  MOVLW  04
14D4:  MOVWF  x34
14D6:  MOVLW  0A
14D8:  MOVWF  x33
14DA:  MOVLW  01
14DC:  MOVWF  x35
14DE:  MOVLB  0
14E0:  RCALL  0F82
....................       sprintf(buffer2, "pot= %u", valorPot1);                      // Convierte el valor entero a una cadena 
14E2:  MOVLW  04
14E4:  MOVLB  4
14E6:  MOVWF  x24
14E8:  MOVLW  14
14EA:  MOVWF  x23
14EC:  MOVLW  32
14EE:  MOVWF  FF6
14F0:  MOVLW  02
14F2:  MOVWF  FF7
14F4:  MOVLW  05
14F6:  MOVWF  x2F
14F8:  MOVLB  0
14FA:  RCALL  0FEC
14FC:  MOVFF  41E,42F
1500:  MOVLW  1B
1502:  MOVLB  4
1504:  MOVWF  x30
1506:  MOVLB  0
1508:  RCALL  1014
....................       SSD1306_DrawText(40, 50, buffer2, 1);  
150A:  MOVLW  28
150C:  MOVLB  4
150E:  MOVWF  x31
1510:  MOVLW  32
1512:  MOVWF  x32
1514:  MOVLW  04
1516:  MOVWF  x34
1518:  MOVLW  14
151A:  MOVWF  x33
151C:  MOVLW  01
151E:  MOVWF  x35
1520:  MOVLB  0
1522:  RCALL  0F82
....................        
.................... SSD1306_Display(); 
1524:  CALL   0428
.................... delay_ms(10000); 
1528:  MOVLW  28
152A:  MOVLB  4
152C:  MOVWF  x2F
152E:  MOVLW  FA
1530:  MOVWF  x32
1532:  MOVLB  0
1534:  CALL   023A
1538:  MOVLB  4
153A:  DECFSZ x2F,F
153C:  BRA    152E
.................... over=false; 
153E:  BCF    09.1
1540:  MOVLB  0
.................... } 
1542:  BRA    13E0
....................     }     
.................... } 
....................  
1544:  SLEEP 
.................... boolean validarChoqueCorrecrto(int pot , int x ){ 
.................... over=true; 
*
0B4C:  BSF    09.1
.................... for(int i = (pot) ; i<= (pot + 15) ; i++){ 
0B4E:  MOVFF  432,434
0B52:  MOVLW  0F
0B54:  MOVLB  4
0B56:  ADDWF  x32,W
0B58:  SUBWF  x34,W
0B5A:  BZ    0B5E
0B5C:  BC    0B70
.................... if(x==i){ 
0B5E:  MOVF   x34,W
0B60:  SUBWF  x33,W
0B62:  BNZ   0B68
.................... over=false; 
0B64:  BCF    09.1
.................... break; 
0B66:  BRA    0B70
.................... } 
0B68:  INCF   x34,F
0B6A:  MOVLB  0
0B6C:  BRA    0B52
0B6E:  MOVLB  4
....................  
.................... } 
.................... return over; 
0B70:  MOVLW  00
0B72:  BTFSC  09.1
0B74:  MOVLW  01
0B76:  MOVWF  01
0B78:  MOVLB  0
0B7A:  RETURN 0
.................... } 
.................... void monvimientoCircle(int dir , x , y){ 
.................... switch(dire){ 
0B7C:  MOVLW  01
0B7E:  MOVLB  4
0B80:  SUBWF  x20,W
0B82:  ADDLW  FC
0B84:  BC    0C5A
0B86:  ADDLW  04
0B88:  MOVLB  0
0B8A:  GOTO   0D3A
.................... case 1:  
.................... //derecha ariba 
....................  
....................  
.................... SSD1306_FillCircle(x , y, 3); 
0B8E:  MOVLB  4
0B90:  CLRF   x33
0B92:  MOVFF  430,432
0B96:  CLRF   x35
0B98:  MOVFF  431,434
0B9C:  CLRF   x37
0B9E:  MOVLW  03
0BA0:  MOVWF  x36
0BA2:  MOVLW  01
0BA4:  MOVWF  x38
0BA6:  MOVLB  0
0BA8:  RCALL  0ADA
....................  SSD1306_Display(); 
0BAA:  RCALL  0428
.................... delay_ms(5); 
0BAC:  MOVLW  05
0BAE:  MOVLB  4
0BB0:  MOVWF  x32
0BB2:  MOVLB  0
0BB4:  CALL   023A
.................... posby--; 
0BB8:  MOVLB  4
0BBA:  DECF   x22,F
.................... posbx++; 
0BBC:  INCF   x21,F
....................  
.................... break; 
0BBE:  BRA    0C5A
.................... case 2:  
.................... //derecha abajo 
.................... SSD1306_FillCircle(x, y, 3); 
0BC0:  MOVLB  4
0BC2:  CLRF   x33
0BC4:  MOVFF  430,432
0BC8:  CLRF   x35
0BCA:  MOVFF  431,434
0BCE:  CLRF   x37
0BD0:  MOVLW  03
0BD2:  MOVWF  x36
0BD4:  MOVLW  01
0BD6:  MOVWF  x38
0BD8:  MOVLB  0
0BDA:  RCALL  0ADA
....................  SSD1306_Display(); 
0BDC:  RCALL  0428
.................... delay_ms(5); 
0BDE:  MOVLW  05
0BE0:  MOVLB  4
0BE2:  MOVWF  x32
0BE4:  MOVLB  0
0BE6:  CALL   023A
....................  
.................... posby++; 
0BEA:  MOVLB  4
0BEC:  INCF   x22,F
.................... posbx++; 
0BEE:  INCF   x21,F
.................... break; 
0BF0:  BRA    0C5A
.................... case 3:  
.................... //izquierda ariba 
.................... SSD1306_FillCircle(x, y, 3); 
0BF2:  MOVLB  4
0BF4:  CLRF   x33
0BF6:  MOVFF  430,432
0BFA:  CLRF   x35
0BFC:  MOVFF  431,434
0C00:  CLRF   x37
0C02:  MOVLW  03
0C04:  MOVWF  x36
0C06:  MOVLW  01
0C08:  MOVWF  x38
0C0A:  MOVLB  0
0C0C:  RCALL  0ADA
....................  SSD1306_Display(); 
0C0E:  RCALL  0428
.................... delay_ms(5); 
0C10:  MOVLW  05
0C12:  MOVLB  4
0C14:  MOVWF  x32
0C16:  MOVLB  0
0C18:  CALL   023A
....................  
.................... posby--; 
0C1C:  MOVLB  4
0C1E:  DECF   x22,F
.................... posbx--; 
0C20:  DECF   x21,F
.................... break; 
0C22:  BRA    0C5A
.................... case 4:  
.................... //izquierda abajo 
.................... SSD1306_FillCircle(x, y, 3); 
0C24:  MOVLB  4
0C26:  CLRF   x33
0C28:  MOVFF  430,432
0C2C:  CLRF   x35
0C2E:  MOVFF  431,434
0C32:  CLRF   x37
0C34:  MOVLW  03
0C36:  MOVWF  x36
0C38:  MOVLW  01
0C3A:  MOVWF  x38
0C3C:  MOVLB  0
0C3E:  RCALL  0ADA
....................  SSD1306_Display(); 
0C40:  CALL   0428
.................... delay_ms(5); 
0C44:  MOVLW  05
0C46:  MOVLB  4
0C48:  MOVWF  x32
0C4A:  MOVLB  0
0C4C:  CALL   023A
....................  
.................... posby++; 
0C50:  MOVLB  4
0C52:  INCF   x22,F
.................... posbx--; 
0C54:  DECF   x21,F
.................... break; 
0C56:  BRA    0C5A
0C58:  MOVLB  4
.................... } 
....................  
.................... if(y<5  && dire==1){ 
0C5A:  MOVF   x31,W
0C5C:  SUBLW  04
0C5E:  BNC   0C6A
0C60:  DECFSZ x20,W
0C62:  BRA    0C6A
.................... //derecha subiendo a derecha bajando 
.................... dire=2; 
0C64:  MOVLW  02
0C66:  MOVWF  x20
.................... } 
0C68:  BRA    0D34
.................... else if(y>59 && dire ==2){ 
0C6A:  MOVF   x31,W
0C6C:  SUBLW  3B
0C6E:  BC    0C7C
0C70:  MOVF   x20,W
0C72:  SUBLW  02
0C74:  BNZ   0C7C
.................... //derecha bajando a derecha subiendo 
.................... dire=1; 
0C76:  MOVLW  01
0C78:  MOVWF  x20
.................... } 
0C7A:  BRA    0D34
....................  
.................... else if(x > 122 && dire==1 ){ 
0C7C:  MOVF   x30,W
0C7E:  SUBLW  7A
0C80:  BC    0CA0
0C82:  DECFSZ x20,W
0C84:  BRA    0CA0
.................... //derecha subiendo a chocar con borde a izquierda subiendo 
.................... dire=3; 
0C86:  MOVLW  03
0C88:  MOVWF  x20
.................... over=validarChoqueCorrecrto( valorPot2 ,  posby  ); 
0C8A:  MOVFF  41F,432
0C8E:  MOVFF  422,433
0C92:  MOVLB  0
0C94:  RCALL  0B4C
0C96:  BCF    09.1
0C98:  BTFSC  01.0
0C9A:  BSF    09.1
.................... }else if(y < 5 && dire==3){ 
0C9C:  BRA    0D32
0C9E:  MOVLB  4
0CA0:  MOVF   x31,W
0CA2:  SUBLW  04
0CA4:  BNC   0CB2
0CA6:  MOVF   x20,W
0CA8:  SUBLW  03
0CAA:  BNZ   0CB2
.................... //izquierda subiendo a izquierda bajando 
.................... dire=4; 
0CAC:  MOVLW  04
0CAE:  MOVWF  x20
.................... } 
0CB0:  BRA    0D34
.................... else if(y > 59 && dire==4){ 
0CB2:  MOVF   x31,W
0CB4:  SUBLW  3B
0CB6:  BC    0CC4
0CB8:  MOVF   x20,W
0CBA:  SUBLW  04
0CBC:  BNZ   0CC4
.................... //izquierda bajando a izquierda subiendo 
.................... dire=3; 
0CBE:  MOVLW  03
0CC0:  MOVWF  x20
.................... } 
0CC2:  BRA    0D34
.................... else if(x < 7 && dire==3){ 
0CC4:  MOVF   x30,W
0CC6:  SUBLW  06
0CC8:  BNC   0CEA
0CCA:  MOVF   x20,W
0CCC:  SUBLW  03
0CCE:  BNZ   0CEA
.................... //izquierda subiendo a derecha subiendo 
.................... dire=1; 
0CD0:  MOVLW  01
0CD2:  MOVWF  x20
.................... over=validarChoqueCorrecrto( valorPot1 ,  posby  ); 
0CD4:  MOVFF  41E,432
0CD8:  MOVFF  422,433
0CDC:  MOVLB  0
0CDE:  RCALL  0B4C
0CE0:  BCF    09.1
0CE2:  BTFSC  01.0
0CE4:  BSF    09.1
.................... } 
0CE6:  BRA    0D32
0CE8:  MOVLB  4
.................... else if(x < 7 && dire==4){ 
0CEA:  MOVF   x30,W
0CEC:  SUBLW  06
0CEE:  BNC   0D10
0CF0:  MOVF   x20,W
0CF2:  SUBLW  04
0CF4:  BNZ   0D10
.................... //izquierda bajando a derecha bajando 
.................... dire=2; 
0CF6:  MOVLW  02
0CF8:  MOVWF  x20
.................... over=validarChoqueCorrecrto( valorPot1 ,  posby  ); 
0CFA:  MOVFF  41E,432
0CFE:  MOVFF  422,433
0D02:  MOVLB  0
0D04:  RCALL  0B4C
0D06:  BCF    09.1
0D08:  BTFSC  01.0
0D0A:  BSF    09.1
.................... } 
0D0C:  BRA    0D32
0D0E:  MOVLB  4
.................... else if(x > 122  && dire==2){ 
0D10:  MOVF   x30,W
0D12:  SUBLW  7A
0D14:  BC    0D34
0D16:  MOVF   x20,W
0D18:  SUBLW  02
0D1A:  BNZ   0D34
....................  
.................... dire=4; 
0D1C:  MOVLW  04
0D1E:  MOVWF  x20
.................... over=validarChoqueCorrecrto( valorPot2 ,  posby  ); 
0D20:  MOVFF  41F,432
0D24:  MOVFF  422,433
0D28:  MOVLB  0
0D2A:  RCALL  0B4C
0D2C:  BCF    09.1
0D2E:  BTFSC  01.0
0D30:  BSF    09.1
0D32:  MOVLB  4
.................... } 
0D34:  MOVLB  0
0D36:  GOTO   1416 (RETURN)
.................... } 

Configuration Fuses:
   Word  1: 2200   HS NOOSCSEN
   Word  2: 0E0E   PUT BROWNOUT BORV20 NOWDT WDT128
   Word  3: 0100   CCP2C1
   Word  4: 0081   STVREN NOLVP NODEBUG
   Word  5: C00F   NOPROTECT NOCPB NOCPD
   Word  6: E00F   NOWRT NOWRTC NOWRTB NOWRTD
   Word  7: 400F   NOEBTR NOEBTRB
